################################################################################
#                                                                              #
#      IAR Universal Linker V5.2.4.16                                          #
#                                                                              #
#           Link time     =  04/Oct/2012  16:26:47                             #
#           Target CPU    =  MSP430                                            #
#           List file     =  "C:\Users\flb.bwrclt61-1\Desktop\eZ430-RF2500\IAR #
#                            workspace\ez430-rf2500_wsm\CC2500 Sensor Demo-Acc #
#                            ess Point\List\Sensor_Demo_AP_as_Data_Hub.map"    #
#           Output file 1 =  "C:\Users\flb.bwrclt61-1\Desktop\eZ430-RF2500\IAR #
#                            workspace\ez430-rf2500_wsm\CC2500 Sensor Demo-Acc #
#                            ess Point\Exe\Sensor_Demo_AP_as_Data_Hub.d43"     #
#                            Format: debug                                     #
#                            UBROF version 10.0.6                              #
#                            Using library modules for C-SPY (-rt)             #
#           Command line  =  --ks_version                                      #
#                            "C:\Users\flb.bwrclt61-1\Desktop\eZ430-RF2500\IAR #
#                            workspace\ez430-rf2500_wsm\CC2500 Sensor Demo-Acc #
#                            ess Point\Obj\ADC10_init.r43"                     #
#                            "C:\Users\flb.bwrclt61-1\Desktop\eZ430-RF2500\IAR #
#                            workspace\ez430-rf2500_wsm\CC2500 Sensor Demo-Acc #
#                            ess Point\Obj\CSL_init.r43"                       #
#                            "C:\Users\flb.bwrclt61-1\Desktop\eZ430-RF2500\IAR #
#                            workspace\ez430-rf2500_wsm\CC2500 Sensor Demo-Acc #
#                            ess Point\Obj\GPIO_init.r43"                      #
#                            "C:\Users\flb.bwrclt61-1\Desktop\eZ430-RF2500\IAR #
#                            workspace\ez430-rf2500_wsm\CC2500 Sensor Demo-Acc #
#                            ess Point\Obj\WDTplus_init.r43"                   #
#                            "C:\Users\flb.bwrclt61-1\Desktop\eZ430-RF2500\IAR #
#                            workspace\ez430-rf2500_wsm\CC2500 Sensor Demo-Acc #
#                            ess Point\Obj\bsp.r43"                            #
#                            "C:\Users\flb.bwrclt61-1\Desktop\eZ430-RF2500\IAR #
#                            workspace\ez430-rf2500_wsm\CC2500 Sensor Demo-Acc #
#                            ess Point\Obj\main_AP.r43"                        #
#                            "C:\Users\flb.bwrclt61-1\Desktop\eZ430-RF2500\IAR #
#                            workspace\ez430-rf2500_wsm\CC2500 Sensor Demo-Acc #
#                            ess Point\Obj\mrfi.r43"                           #
#                            "C:\Users\flb.bwrclt61-1\Desktop\eZ430-RF2500\IAR #
#                            workspace\ez430-rf2500_wsm\CC2500 Sensor Demo-Acc #
#                            ess Point\Obj\nwk.r43"                            #
#                            "C:\Users\flb.bwrclt61-1\Desktop\eZ430-RF2500\IAR #
#                            workspace\ez430-rf2500_wsm\CC2500 Sensor Demo-Acc #
#                            ess Point\Obj\nwk_QMgmt.r43"                      #
#                            "C:\Users\flb.bwrclt61-1\Desktop\eZ430-RF2500\IAR #
#                            workspace\ez430-rf2500_wsm\CC2500 Sensor Demo-Acc #
#                            ess Point\Obj\nwk_api.r43"                        #
#                            "C:\Users\flb.bwrclt61-1\Desktop\eZ430-RF2500\IAR #
#                            workspace\ez430-rf2500_wsm\CC2500 Sensor Demo-Acc #
#                            ess Point\Obj\nwk_frame.r43"                      #
#                            "C:\Users\flb.bwrclt61-1\Desktop\eZ430-RF2500\IAR #
#                            workspace\ez430-rf2500_wsm\CC2500 Sensor Demo-Acc #
#                            ess Point\Obj\nwk_freq.r43"                       #
#                            "C:\Users\flb.bwrclt61-1\Desktop\eZ430-RF2500\IAR #
#                            workspace\ez430-rf2500_wsm\CC2500 Sensor Demo-Acc #
#                            ess Point\Obj\nwk_globals.r43"                    #
#                            "C:\Users\flb.bwrclt61-1\Desktop\eZ430-RF2500\IAR #
#                            workspace\ez430-rf2500_wsm\CC2500 Sensor Demo-Acc #
#                            ess Point\Obj\nwk_ioctl.r43"                      #
#                            "C:\Users\flb.bwrclt61-1\Desktop\eZ430-RF2500\IAR #
#                            workspace\ez430-rf2500_wsm\CC2500 Sensor Demo-Acc #
#                            ess Point\Obj\nwk_join.r43"                       #
#                            "C:\Users\flb.bwrclt61-1\Desktop\eZ430-RF2500\IAR #
#                            workspace\ez430-rf2500_wsm\CC2500 Sensor Demo-Acc #
#                            ess Point\Obj\nwk_link.r43"                       #
#                            "C:\Users\flb.bwrclt61-1\Desktop\eZ430-RF2500\IAR #
#                            workspace\ez430-rf2500_wsm\CC2500 Sensor Demo-Acc #
#                            ess Point\Obj\nwk_mgmt.r43"                       #
#                            "C:\Users\flb.bwrclt61-1\Desktop\eZ430-RF2500\IAR #
#                            workspace\ez430-rf2500_wsm\CC2500 Sensor Demo-Acc #
#                            ess Point\Obj\nwk_ping.r43"                       #
#                            "C:\Users\flb.bwrclt61-1\Desktop\eZ430-RF2500\IAR #
#                            workspace\ez430-rf2500_wsm\CC2500 Sensor Demo-Acc #
#                            ess Point\Obj\nwk_security.r43"                   #
#                            "C:\Users\flb.bwrclt61-1\Desktop\eZ430-RF2500\IAR #
#                            workspace\ez430-rf2500_wsm\CC2500 Sensor Demo-Acc #
#                            ess Point\Obj\virtual_com_cmds.r43"               #
#                            "C:\Users\flb.bwrclt61-1\Desktop\eZ430-RF2500\IAR #
#                            workspace\ez430-rf2500_wsm\CC2500 Sensor Demo-Acc #
#                            ess Point\Obj\vlo_rand.r43"                       #
#                            -o                                                #
#                            "C:\Users\flb.bwrclt61-1\Desktop\eZ430-RF2500\IAR #
#                            workspace\ez430-rf2500_wsm\CC2500 Sensor Demo-Acc #
#                            ess Point\Exe\Sensor_Demo_AP_as_Data_Hub.d43"     #
#                            -l                                                #
#                            "C:\Users\flb.bwrclt61-1\Desktop\eZ430-RF2500\IAR #
#                            workspace\ez430-rf2500_wsm\CC2500 Sensor Demo-Acc #
#                            ess Point\List\Sensor_Demo_AP_as_Data_Hub.map"    #
#                            -xmsnio                                           #
#                            "-IC:\Program Files\IAR Systems\Embedded Workbenc #
#                            h 6.0 Kickstart\430\LIB\"                         #
#                            -f                                                #
#                            "C:\Program Files\IAR Systems\Embedded Workbench  #
#                            6.0 Kickstart\430\CONFIG\lnk430F2274.xcl"         #
#                            (-cmsp430 -QCODE_I=CODE_ID                        #
#                            -Z(DATA)DATA16_I,DATA16_Z,DATA16_N,TLS16_I,DATA16 #
#                            _HEAP+_DATA16_HEAP_SIZE=0200-05FF                 #
#                            -Z(DATA)CODE_I -Z(DATA)CSTACK+_STACK_SIZE#        #
#                            -Z(CONST)INFO=1000-10FF                           #
#                            -Z(CONST)INFOA=10C0-10FF                          #
#                            -Z(CONST)INFOB=1080-10BF                          #
#                            -Z(CONST)INFOC=1040-107F                          #
#                            -Z(CONST)INFOD=1000-103F                          #
#                            -Z(CONST)DATA16_C,DATA16_ID,TLS16_ID,DIFUNCT,CHEC #
#                            KSUM=8000-FFDF                                    #
#                            -Z(CODE)CSTART,ISR_CODE,CODE_ID=8000-FFDF         #
#                            -P(CODE)CODE=8000-FFDF -Z(CODE)INTVEC=FFE0-FFFF   #
#                            -Z(CODE)RESET=FFFE-FFFF) -D_STACK_SIZE=C8 -rt     #
#                            "C:\Program Files\IAR Systems\Embedded Workbench  #
#                            6.0 Kickstart\430\LIB\CLIB\cl430f.r43"            #
#                            -e_large_write=_formatted_write                   #
#                            -e_large_read=_formatted_read                     #
#                            -D_DATA16_HEAP_SIZE=0 -s __program_start          #
#                            -D_DATA20_HEAP_SIZE=50                            #
#                                                                              #
#                           Copyright (C) 1987-2011 IAR Systems AB.            #
################################################################################





                ****************************************
                *                                      *
                *           CROSS REFERENCE            *
                *                                      *
                ****************************************

       Program entry at :           82F8  Relocatable, from module : ?cstart




                ****************************************
                *                                      *
                *            RUNTIME MODEL             *
                *                                      *
                ****************************************

  __SystemLibrary = CLib
  __core          = 430
  __double_size   = 32
  __pic           = no
  __reg_r4        = free
  __reg_r5        = free
  __rt_version    = 3

                ****************************************
                *                                      *
                *    AUTOMATIC SYMBOL REDIRECTIONS     *
                *                                      *
                ****************************************

                  There are no automatic symbol redirections.



                ****************************************
                *                                      *
                *              MODULE MAP              *
                *                                      *
                ****************************************


  DEFINED ABSOLUTE ENTRIES
    *************************************************************************

  DEFINED ABSOLUTE ENTRIES
  PROGRAM MODULE, NAME : ?ABS_ENTRY_MOD

Absolute parts
           ENTRY                   ADDRESS         REF BY
           =====                   =======         ======
           _DATA20_HEAP_SIZE       0050 
           _DATA16_HEAP_SIZE       0000 
           _STACK_SIZE             00C8 
    *************************************************************************

  FILE NAME : C:\Users\flb.bwrclt61-1\Desktop\eZ430-RF2500\IARworkspace\ez430-rf2500_wsm\CC2500 Sensor Demo-Access Point\Obj\ADC10_init.r43
  PROGRAM MODULE, NAME : ADC10_init

  SEGMENTS IN THE MODULE
  ======================
DATA16_AN
  Relative segment, address: 004A - 004A (0x1 bytes), align: 0
  Segment part 1. ROOT.
           ENTRY                   ADDRESS         REF BY
           =====                   =======         ======
           ADC10AE0                004A 
    -------------------------------------------------------------------------
DATA16_AN
  Relative segment, address: 01B0 - 01B1 (0x2 bytes), align: 0
  Segment part 2. ROOT.       Intra module refs:   main (main_AP)
           ENTRY                   ADDRESS         REF BY
           =====                   =======         ======
           ADC10CTL0               01B0 
    -------------------------------------------------------------------------
CODE
  Segment part 4. NOT NEEDED.
           ENTRY                   ADDRESS         REF BY
           =====                   =======         ======
           ADC10_init              
    -------------------------------------------------------------------------
CSTACK
  Segment part 3. NOT NEEDED.
    -------------------------------------------------------------------------
CODE
  Segment part 5. NOT NEEDED.
           ENTRY                   ADDRESS         REF BY
           =====                   =======         ======
           ?setjmp_save_r4         
    -------------------------------------------------------------------------
CODE
  Segment part 6. NOT NEEDED.
           ENTRY                   ADDRESS         REF BY
           =====                   =======         ======
           ?setjmp_save_r5         

    *************************************************************************

  FILE NAME : C:\Users\flb.bwrclt61-1\Desktop\eZ430-RF2500\IARworkspace\ez430-rf2500_wsm\CC2500 Sensor Demo-Access Point\Obj\CSL_init.r43
  PROGRAM MODULE, NAME : CSL_init

  SEGMENTS IN THE MODULE
  ======================
DATA16_AN
  Relative segment, address: 0120 - 0121 (0x2 bytes), align: 0
  Segment part 1. ROOT.       Intra module refs:   __low_level_init (bsp)
           ENTRY                   ADDRESS         REF BY
           =====                   =======         ======
           WDTCTL                  0120 
    -------------------------------------------------------------------------
CODE
  Segment part 3. NOT NEEDED.
           ENTRY                   ADDRESS         REF BY
           =====                   =======         ======
           CSL_init                
               calls direct
    -------------------------------------------------------------------------
CSTACK
  Segment part 2. NOT NEEDED.
    -------------------------------------------------------------------------
CODE
  Segment part 4. TENTATIVE. Used definition from ADC10_init
           ENTRY                   ADDRESS         REF BY
           =====                   =======         ======
           ?setjmp_save_r4         
    -------------------------------------------------------------------------
CODE
  Segment part 5. TENTATIVE. Used definition from ADC10_init
           ENTRY                   ADDRESS         REF BY
           =====                   =======         ======
           ?setjmp_save_r5         

    *************************************************************************

  FILE NAME : C:\Users\flb.bwrclt61-1\Desktop\eZ430-RF2500\IARworkspace\ez430-rf2500_wsm\CC2500 Sensor Demo-Access Point\Obj\GPIO_init.r43
  PROGRAM MODULE, NAME : GPIO_init

  SEGMENTS IN THE MODULE
  ======================
DATA16_AN
  Relative segment, address: 0021 - 0021 (0x1 bytes), align: 0
  Segment part 1. ROOT.       Intra module refs:   BSP_InitButtons (bsp)
                                                   BSP_InitLeds (bsp)
                                                   main (main_AP)
           ENTRY                   ADDRESS         REF BY
           =====                   =======         ======
           P1OUT                   0021 
    -------------------------------------------------------------------------
DATA16_AN
  Relative segment, address: 0022 - 0022 (0x1 bytes), align: 0
  Segment part 2. ROOT.       Intra module refs:   BSP_InitLeds (bsp)
           ENTRY                   ADDRESS         REF BY
           =====                   =======         ======
           P1DIR                   0022 
    -------------------------------------------------------------------------
DATA16_AN
  Relative segment, address: 0023 - 0023 (0x1 bytes), align: 0
  Segment part 3. ROOT.
           ENTRY                   ADDRESS         REF BY
           =====                   =======         ======
           P1IFG                   0023 
    -------------------------------------------------------------------------
DATA16_AN
  Relative segment, address: 0024 - 0024 (0x1 bytes), align: 0
  Segment part 4. ROOT.
           ENTRY                   ADDRESS         REF BY
           =====                   =======         ======
           P1IES                   0024 
    -------------------------------------------------------------------------
DATA16_AN
  Relative segment, address: 0029 - 0029 (0x1 bytes), align: 0
  Segment part 5. ROOT.
           ENTRY                   ADDRESS         REF BY
           =====                   =======         ======
           P2OUT                   0029 
    -------------------------------------------------------------------------
DATA16_AN
  Relative segment, address: 002A - 002A (0x1 bytes), align: 0
  Segment part 6. ROOT.
           ENTRY                   ADDRESS         REF BY
           =====                   =======         ======
           P2DIR                   002A 
    -------------------------------------------------------------------------
DATA16_AN
  Relative segment, address: 002B - 002B (0x1 bytes), align: 0
  Segment part 7. ROOT.       Intra module refs:   MRFI_GpioIsr (mrfi)
                                                   MRFI_Init (mrfi)
                                                   MRFI_Transmit (mrfi)
                                                   Mrfi_RxModeOff (mrfi)
                                                   Mrfi_RxModeOn (mrfi)
           ENTRY                   ADDRESS         REF BY
           =====                   =======         ======
           P2IFG                   002B 
    -------------------------------------------------------------------------
DATA16_AN
  Relative segment, address: 002C - 002C (0x1 bytes), align: 0
  Segment part 8. ROOT.       Intra module refs:   MRFI_Init (mrfi)
           ENTRY                   ADDRESS         REF BY
           =====                   =======         ======
           P2IES                   002C 
    -------------------------------------------------------------------------
DATA16_AN
  Relative segment, address: 002E - 002E (0x1 bytes), align: 0
  Segment part 9. ROOT.       Intra module refs:   MRFI_Init (mrfi)
           ENTRY                   ADDRESS         REF BY
           =====                   =======         ======
           P2SEL                   002E 
    -------------------------------------------------------------------------
CODE
  Segment part 11. NOT NEEDED.
           ENTRY                   ADDRESS         REF BY
           =====                   =======         ======
           GPIO_init               
    -------------------------------------------------------------------------
CSTACK
  Segment part 10. NOT NEEDED.
    -------------------------------------------------------------------------
CODE
  Segment part 12. TENTATIVE. Used definition from ADC10_init
           ENTRY                   ADDRESS         REF BY
           =====                   =======         ======
           ?setjmp_save_r4         
    -------------------------------------------------------------------------
CODE
  Segment part 13. TENTATIVE. Used definition from ADC10_init
           ENTRY                   ADDRESS         REF BY
           =====                   =======         ======
           ?setjmp_save_r5         

    *************************************************************************

  FILE NAME : C:\Users\flb.bwrclt61-1\Desktop\eZ430-RF2500\IARworkspace\ez430-rf2500_wsm\CC2500 Sensor Demo-Access Point\Obj\WDTplus_init.r43
  PROGRAM MODULE, NAME : WDTplus_init

  SEGMENTS IN THE MODULE
  ======================
DATA16_AN
  Segment part 1. TENTATIVE. Used definition from CSL_init
           ENTRY                   ADDRESS         REF BY
           =====                   =======         ======
           WDTCTL                  
    -------------------------------------------------------------------------
CODE
  Segment part 3. NOT NEEDED.
           ENTRY                   ADDRESS         REF BY
           =====                   =======         ======
           WDTplus_init            
    -------------------------------------------------------------------------
CSTACK
  Segment part 2. NOT NEEDED.
    -------------------------------------------------------------------------
CODE
  Segment part 4. TENTATIVE. Used definition from ADC10_init
           ENTRY                   ADDRESS         REF BY
           =====                   =======         ======
           ?setjmp_save_r4         
    -------------------------------------------------------------------------
CODE
  Segment part 5. TENTATIVE. Used definition from ADC10_init
           ENTRY                   ADDRESS         REF BY
           =====                   =======         ======
           ?setjmp_save_r5         

    *************************************************************************

  FILE NAME : C:\Users\flb.bwrclt61-1\Desktop\eZ430-RF2500\IARworkspace\ez430-rf2500_wsm\CC2500 Sensor Demo-Access Point\Obj\bsp.r43
  PROGRAM MODULE, NAME : bsp

  SEGMENTS IN THE MODULE
  ======================
DATA16_AN
  Relative segment, address: 0056 - 0056 (0x1 bytes), align: 0
  Segment part 1. ROOT.       Intra module refs:   BSP_InitBoard
           ENTRY                   ADDRESS         REF BY
           =====                   =======         ======
           DCOCTL                  0056 
    -------------------------------------------------------------------------
DATA16_AN
  Relative segment, address: 0057 - 0057 (0x1 bytes), align: 0
  Segment part 2. ROOT.       Intra module refs:   BSP_InitBoard
           ENTRY                   ADDRESS         REF BY
           =====                   =======         ======
           BCSCTL1                 0057 
    -------------------------------------------------------------------------
DATA16_AN
  Segment part 3. TENTATIVE. Used definition from GPIO_init
           ENTRY                   ADDRESS         REF BY
           =====                   =======         ======
           P1OUT                   
    -------------------------------------------------------------------------
DATA16_AN
  Segment part 4. TENTATIVE. Used definition from GPIO_init
           ENTRY                   ADDRESS         REF BY
           =====                   =======         ======
           P1DIR                   
    -------------------------------------------------------------------------
DATA16_AN
  Relative segment, address: 0027 - 0027 (0x1 bytes), align: 0
  Segment part 5. ROOT.       Intra module refs:   BSP_InitButtons
           ENTRY                   ADDRESS         REF BY
           =====                   =======         ======
           P1REN                   0027 
    -------------------------------------------------------------------------
DATA16_AN
  Relative segment, address: 0160 - 0161 (0x2 bytes), align: 0
  Segment part 6. ROOT.       Intra module refs:   BSP_InitBoard
                                                   main (main_AP)
           ENTRY                   ADDRESS         REF BY
           =====                   =======         ======
           TACTL                   0160 
    -------------------------------------------------------------------------
DATA16_AN
  Segment part 7. TENTATIVE. Used definition from CSL_init
           ENTRY                   ADDRESS         REF BY
           =====                   =======         ======
           WDTCTL                  
    -------------------------------------------------------------------------
DATA16_AN
  Relative segment, address: 10FC - 10FC (0x1 bytes), align: 0
  Segment part 8. ROOT.       Intra module refs:   BSP_InitBoard
           ENTRY                   ADDRESS         REF BY
           =====                   =======         ======
           CALDCO_8MHZ             10FC 
    -------------------------------------------------------------------------
DATA16_AN
  Relative segment, address: 10FD - 10FD (0x1 bytes), align: 0
  Segment part 9. ROOT.       Intra module refs:   BSP_InitBoard
           ENTRY                   ADDRESS         REF BY
           =====                   =======         ======
           CALBC1_8MHZ             10FD 
    -------------------------------------------------------------------------
<CODE> 1 (was CODE)
  Relative segment, address: A704 - A71B (0x18 bytes), align: 1
  Segment part 18.
           ENTRY                   ADDRESS         REF BY
           =====                   =======         ======
           BSP_Init                A704            main (main_AP)
               calls direct
               CSTACK = 00000000 ( 00000004 )
    -------------------------------------------------------------------------
DATA16_Z
  Relative segment, address: 0292 - 0292 (0x1 bytes), align: 0
  Segment part 11.            Intra module refs:   BSP_Delay
                                                   BSP_InitBoard
           LOCAL                   ADDRESS         
           =====                   =======         
           sIterationsPerUsec      0292 
    -------------------------------------------------------------------------
<CODE> 1 (was CODE)
  Relative segment, address: A8E0 - A8E9 (0xa bytes), align: 1
  Segment part 17. ROOT.
           ENTRY                   ADDRESS         REF BY
           =====                   =======         ======
           __low_level_init        A8E0            ?cstart_call_low_level_init (?cstart)
               CSTACK = 00000000 ( 00000002 )
    -------------------------------------------------------------------------
<CODE> 1 (was CODE)
  Relative segment, address: A63C - A65B (0x20 bytes), align: 1
  Segment part 16.            Intra module refs:   BSP_Init
           ENTRY                   ADDRESS         REF BY
           =====                   =======         ======
           BSP_InitBoard           A63C 
               CSTACK = 00000000 ( 00000002 )
    -------------------------------------------------------------------------
<CODE> 1 (was CODE)
  Relative segment, address: A5D6 - A5F7 (0x22 bytes), align: 1
  Segment part 15.
           ENTRY                   ADDRESS         REF BY
           =====                   =======         ======
           BSP_Delay               A5D6            ?Subroutine9 (mrfi)
               CSTACK = 00000000 ( 00000004 )
    -------------------------------------------------------------------------
CODE
  Segment part 14. NOT NEEDED.
           ENTRY                   ADDRESS         REF BY
           =====                   =======         ======
           BSP_InitDrivers         
               calls direct
    -------------------------------------------------------------------------
<CODE> 1 (was CODE)
  Relative segment, address: A7B0 - A7C1 (0x12 bytes), align: 1
  Segment part 13.            Intra module refs:   BSP_Init
           ENTRY                   ADDRESS         REF BY
           =====                   =======         ======
           BSP_InitLeds            A7B0 
               CSTACK = 00000000 ( 00000002 )
    -------------------------------------------------------------------------
<CODE> 1 (was CODE)
  Relative segment, address: A8F4 - A8FD (0xa bytes), align: 1
  Segment part 12.            Intra module refs:   BSP_Init
           ENTRY                   ADDRESS         REF BY
           =====                   =======         ======
           BSP_InitButtons         A8F4 
               CSTACK = 00000000 ( 00000002 )
    -------------------------------------------------------------------------
CSTACK
  Segment part 10. NOT NEEDED.
    -------------------------------------------------------------------------
CODE
  Segment part 19. TENTATIVE. Used definition from ADC10_init
           ENTRY                   ADDRESS         REF BY
           =====                   =======         ======
           ?setjmp_save_r4         
    -------------------------------------------------------------------------
CODE
  Segment part 20. TENTATIVE. Used definition from ADC10_init
           ENTRY                   ADDRESS         REF BY
           =====                   =======         ======
           ?setjmp_save_r5         

    *************************************************************************

  FILE NAME : C:\Users\flb.bwrclt61-1\Desktop\eZ430-RF2500\IARworkspace\ez430-rf2500_wsm\CC2500 Sensor Demo-Access Point\Obj\main_AP.r43
  PROGRAM MODULE, NAME : main_AP

  SEGMENTS IN THE MODULE
  ======================
DATA16_AN
  Segment part 1. TENTATIVE. Used definition from ADC10_init
           ENTRY                   ADDRESS         REF BY
           =====                   =======         ======
           ADC10CTL0               
    -------------------------------------------------------------------------
DATA16_AN
  Relative segment, address: 01B2 - 01B3 (0x2 bytes), align: 0
  Segment part 2. ROOT.       Intra module refs:   main
           ENTRY                   ADDRESS         REF BY
           =====                   =======         ======
           ADC10CTL1               01B2 
    -------------------------------------------------------------------------
DATA16_AN
  Relative segment, address: 01B4 - 01B5 (0x2 bytes), align: 0
  Segment part 3. ROOT.       Intra module refs:   main
           ENTRY                   ADDRESS         REF BY
           =====                   =======         ======
           ADC10MEM                01B4 
    -------------------------------------------------------------------------
DATA16_AN
  Relative segment, address: 0053 - 0053 (0x1 bytes), align: 0
  Segment part 4. ROOT.       Intra module refs:   main
           ENTRY                   ADDRESS         REF BY
           =====                   =======         ======
           BCSCTL3                 0053 
    -------------------------------------------------------------------------
DATA16_AN
  Relative segment, address: 0020 - 0020 (0x1 bytes), align: 0
  Segment part 5. ROOT.       Intra module refs:   main
           ENTRY                   ADDRESS         REF BY
           =====                   =======         ======
           P1IN                    0020 
    -------------------------------------------------------------------------
DATA16_AN
  Segment part 6. TENTATIVE. Used definition from GPIO_init
           ENTRY                   ADDRESS         REF BY
           =====                   =======         ======
           P1OUT                   
    -------------------------------------------------------------------------
DATA16_AN
  Segment part 7. TENTATIVE. Used definition from bsp
           ENTRY                   ADDRESS         REF BY
           =====                   =======         ======
           TACTL                   
    -------------------------------------------------------------------------
DATA16_AN
  Relative segment, address: 0162 - 0163 (0x2 bytes), align: 0
  Segment part 8. ROOT.       Intra module refs:   main
           ENTRY                   ADDRESS         REF BY
           =====                   =======         ======
           TACCTL0                 0162 
    -------------------------------------------------------------------------
DATA16_AN
  Relative segment, address: 0172 - 0173 (0x2 bytes), align: 0
  Segment part 9. ROOT.       Intra module refs:   main
           ENTRY                   ADDRESS         REF BY
           =====                   =======         ======
           TACCR0                  0172 
    -------------------------------------------------------------------------
DATA16_Z
  Relative segment, address: 0293 - 029A (0x8 bytes), align: 0
  Segment part 17.            Intra module refs:   main
           LOCAL                   ADDRESS         
           =====                   =======         
           sLID                    0293 
    -------------------------------------------------------------------------
DATA16_Z
  Relative segment, address: 029B - 029B (0x1 bytes), align: 0
  Segment part 18.            Intra module refs:   main
           LOCAL                   ADDRESS         
           =====                   =======         
           sNumCurrentPeers        029B 
    -------------------------------------------------------------------------
DATA16_Z
  Relative segment, address: 029C - 029C (0x1 bytes), align: 0
  Segment part 19.            Intra module refs:   main
                                                   sCB
           LOCAL                   ADDRESS         
           =====                   =======         
           sPeerFrameSem           029C 
    -------------------------------------------------------------------------
DATA16_Z
  Relative segment, address: 029D - 029D (0x1 bytes), align: 0
  Segment part 20.            Intra module refs:   main
                                                   sCB
           LOCAL                   ADDRESS         
           =====                   =======         
           sJoinSem                029D 
    -------------------------------------------------------------------------
DATA16_Z
  Relative segment, address: 029E - 029E (0x1 bytes), align: 0
  Segment part 21.            Intra module refs:   Timer_A
                                                   main
           LOCAL                   ADDRESS         
           =====                   =======         
           sSelfMeasureSem         029E 
    -------------------------------------------------------------------------
DATA16_Z
  Relative segment, address: 029F - 029F (0x1 bytes), align: 0
  Segment part 22.            Intra module refs:   main
                                                   sCB
           LOCAL                   ADDRESS         
           =====                   =======         
           sBlinky                 029F 
    -------------------------------------------------------------------------
DATA16_C
  Relative segment, address: 800C - 8026 (0x1b bytes), align: 0
  Segment part 13.            Intra module refs:   main
    -------------------------------------------------------------------------
DATA16_C
  Relative segment, address: 8027 - 802D (0x7 bytes), align: 0
  Segment part 14.            Intra module refs:   main
    -------------------------------------------------------------------------
DATA16_C
  Relative segment, address: 802E - 8032 (0x5 bytes), align: 0
  Segment part 15.            Intra module refs:   main
    -------------------------------------------------------------------------
DATA16_C
  Relative segment, address: 8033 - 8036 (0x4 bytes), align: 0
  Segment part 16.            Intra module refs:   main
    -------------------------------------------------------------------------
DATA16_C
  Relative segment, address: 8037 - 81C2 (0x18c bytes), align: 0
  Segment part 23.            Intra module refs:   main
           ENTRY                   ADDRESS         REF BY
           =====                   =======         ======
           splash                  8037 
    -------------------------------------------------------------------------
DATA16_I
  Relative segment, address: 0200 - 0201 (0x2 bytes), align: 1
  Segment part 24.            Intra module refs:   main
           ENTRY                   ADDRESS         REF BY
           =====                   =======         ======
           tempOffset              0200 
    -------------------------------------------------------------------------
<CODE> 1 (was CODE)
  Relative segment, address: 8990 - 8BC7 (0x238 bytes), align: 1
  Segment part 29.
           ENTRY                   ADDRESS         REF BY
           =====                   =======         ======
           main                    8990            Segment part 17 (?cstart)
               calls direct
               CSTACK = 00000000 ( 0000002C )
    -------------------------------------------------------------------------
<CODE> 1 (was CODE)
  Relative segment, address: A74A - A75F (0x16 bytes), align: 1
  Segment part 30.            Intra module refs:   main
           LOCAL                   ADDRESS         
           =====                   =======         
           ?Subroutine0            A74A 
    -------------------------------------------------------------------------
<CODE> 1 (was CODE)
  Relative segment, address: A734 - A749 (0x16 bytes), align: 1
  Segment part 28.            Intra module refs:   main
           LOCAL                   ADDRESS         
           =====                   =======         
           sCB                     A734 
               CSTACK = 00000000 ( 00000002 )
    -------------------------------------------------------------------------
<CODE> 1 (was CODE)
  Relative segment, address: A908 - A90F (0x8 bytes), align: 1
  Segment part 27.            Intra module refs:   ADC10_ISR::??INTVEC 10
           ENTRY                   ADDRESS         REF BY
           =====                   =======         ======
           ADC10_ISR               A908 
               interrupt function
               CSTACK = 00000000 ( 00000004 )
    -------------------------------------------------------------------------
<CODE> 1 (was CODE)
  Relative segment, address: A92C - A931 (0x6 bytes), align: 1
  Segment part 26.            Intra module refs:   Timer_A::??INTVEC 18
           ENTRY                   ADDRESS         REF BY
           =====                   =======         ======
           Timer_A                 A92C 
               interrupt function
               CSTACK = 00000000 ( 00000004 )
    -------------------------------------------------------------------------
INTVEC
  Common segment, address: FFE0 - FFEB (0xc bytes), align: 1
  Segment part 10. ROOT.
           ENTRY                   ADDRESS         REF BY
           =====                   =======         ======
           ADC10_ISR::??INTVEC 10
                                   FFEA 
    -------------------------------------------------------------------------
INTVEC
  Common segment, address: FFE0 - FFF3 (0x14 bytes), align: 1
  Segment part 11. ROOT.
           ENTRY                   ADDRESS         REF BY
           =====                   =======         ======
           Timer_A::??INTVEC 18    FFF2 
    -------------------------------------------------------------------------
CSTACK
  Segment part 12. NOT NEEDED.
    -------------------------------------------------------------------------
DATA16_ID
  Relative segment, address: 827A - 827B (0x2 bytes), align: 1
  Segment part 25.            Intra module refs:   tempOffset
    -------------------------------------------------------------------------
CODE
  Segment part 31. TENTATIVE. Used definition from ADC10_init
           ENTRY                   ADDRESS         REF BY
           =====                   =======         ======
           ?setjmp_save_r4         
    -------------------------------------------------------------------------
CODE
  Segment part 32. TENTATIVE. Used definition from ADC10_init
           ENTRY                   ADDRESS         REF BY
           =====                   =======         ======
           ?setjmp_save_r5         

    *************************************************************************

  FILE NAME : C:\Users\flb.bwrclt61-1\Desktop\eZ430-RF2500\IARworkspace\ez430-rf2500_wsm\CC2500 Sensor Demo-Access Point\Obj\mrfi.r43
  PROGRAM MODULE, NAME : mrfi

  SEGMENTS IN THE MODULE
  ======================
DATA16_AN
  Relative segment, address: 0003 - 0003 (0x1 bytes), align: 0
  Segment part 1. ROOT.       Intra module refs:   MRFI_Init
                                                   TXString (virtual_com_cmds)
                                                   mrfiSpiCmdStrobe
                                                   spiBurstFifoAccess
                                                   spiRegAccess
           ENTRY                   ADDRESS         REF BY
           =====                   =======         ======
           IFG2                    0003 
    -------------------------------------------------------------------------
DATA16_AN
  Relative segment, address: 0028 - 0028 (0x1 bytes), align: 0
  Segment part 2. ROOT.       Intra module refs:   MRFI_Transmit
           ENTRY                   ADDRESS         REF BY
           =====                   =======         ======
           P2IN                    0028 
    -------------------------------------------------------------------------
DATA16_AN
  Segment part 3. TENTATIVE. Used definition from GPIO_init
           ENTRY                   ADDRESS         REF BY
           =====                   =======         ======
           P2IFG                   
    -------------------------------------------------------------------------
DATA16_AN
  Segment part 4. TENTATIVE. Used definition from GPIO_init
           ENTRY                   ADDRESS         REF BY
           =====                   =======         ======
           P2IES                   
    -------------------------------------------------------------------------
DATA16_AN
  Relative segment, address: 002D - 002D (0x1 bytes), align: 0
  Segment part 5. ROOT.       Intra module refs:   MRFI_GpioIsr
                                                   Mrfi_RxModeOff
                                                   Mrfi_RxModeOn
           ENTRY                   ADDRESS         REF BY
           =====                   =======         ======
           P2IE                    002D 
    -------------------------------------------------------------------------
DATA16_AN
  Segment part 6. TENTATIVE. Used definition from GPIO_init
           ENTRY                   ADDRESS         REF BY
           =====                   =======         ======
           P2SEL                   
    -------------------------------------------------------------------------
DATA16_AN
  Relative segment, address: 0018 - 0018 (0x1 bytes), align: 0
  Segment part 7. ROOT.       Intra module refs:   MRFI_Init
                                                   MRFI_WakeUp
           ENTRY                   ADDRESS         REF BY
           =====                   =======         ======
           P3IN                    0018 
    -------------------------------------------------------------------------
DATA16_AN
  Relative segment, address: 0019 - 0019 (0x1 bytes), align: 0
  Segment part 8. ROOT.       Intra module refs:   MRFI_Init
                                                   MRFI_WakeUp
                                                   mrfiSpiCmdStrobe
                                                   mrfiSpiInit
                                                   spiBurstFifoAccess
                                                   spiRegAccess
           ENTRY                   ADDRESS         REF BY
           =====                   =======         ======
           P3OUT                   0019 
    -------------------------------------------------------------------------
DATA16_AN
  Relative segment, address: 001A - 001A (0x1 bytes), align: 0
  Segment part 9. ROOT.       Intra module refs:   mrfiSpiInit
           ENTRY                   ADDRESS         REF BY
           =====                   =======         ======
           P3DIR                   001A 
    -------------------------------------------------------------------------
DATA16_AN
  Relative segment, address: 001B - 001B (0x1 bytes), align: 0
  Segment part 10. ROOT.      Intra module refs:   COM_Init (virtual_com_cmds)
                                                   mrfiSpiInit
           ENTRY                   ADDRESS         REF BY
           =====                   =======         ======
           P3SEL                   001B 
    -------------------------------------------------------------------------
DATA16_AN
  Relative segment, address: 0068 - 0068 (0x1 bytes), align: 0
  Segment part 11. ROOT.      Intra module refs:   mrfiSpiCmdStrobe
                                                   mrfiSpiInit
                                                   spiBurstFifoAccess
                                                   spiRegAccess
           ENTRY                   ADDRESS         REF BY
           =====                   =======         ======
           UCB0CTL0                0068 
    -------------------------------------------------------------------------
DATA16_AN
  Relative segment, address: 0069 - 0069 (0x1 bytes), align: 0
  Segment part 12. ROOT.      Intra module refs:   mrfiSpiInit
           ENTRY                   ADDRESS         REF BY
           =====                   =======         ======
           UCB0CTL1                0069 
    -------------------------------------------------------------------------
DATA16_AN
  Relative segment, address: 006A - 006A (0x1 bytes), align: 0
  Segment part 13. ROOT.      Intra module refs:   mrfiSpiInit
           ENTRY                   ADDRESS         REF BY
           =====                   =======         ======
           UCB0BR0                 006A 
    -------------------------------------------------------------------------
DATA16_AN
  Relative segment, address: 006B - 006B (0x1 bytes), align: 0
  Segment part 14. ROOT.      Intra module refs:   mrfiSpiInit
           ENTRY                   ADDRESS         REF BY
           =====                   =======         ======
           UCB0BR1                 006B 
    -------------------------------------------------------------------------
DATA16_AN
  Relative segment, address: 006E - 006E (0x1 bytes), align: 0
  Segment part 15. ROOT.      Intra module refs:   mrfiSpiCmdStrobe
                                                   spiBurstFifoAccess
                                                   spiRegAccess
           ENTRY                   ADDRESS         REF BY
           =====                   =======         ======
           UCB0RXBUF               006E 
    -------------------------------------------------------------------------
DATA16_AN
  Relative segment, address: 006F - 006F (0x1 bytes), align: 0
  Segment part 16. ROOT.      Intra module refs:   MRFI_Init
                                                   mrfiSpiCmdStrobe
                                                   spiBurstFifoAccess
                                                   spiRegAccess
           ENTRY                   ADDRESS         REF BY
           =====                   =======         ======
           UCB0TXBUF               006F 
    -------------------------------------------------------------------------
DATA16_C
  Relative segment, address: 81C3 - 81FE (0x3c bytes), align: 0
  Segment part 19.            Intra module refs:   MRFI_Init
           LOCAL                   ADDRESS         
           =====                   =======         
           mrfiRadioCfg            81C3 
    -------------------------------------------------------------------------
DATA16_Z
  Relative segment, address: 02A0 - 02A0 (0x1 bytes), align: 0
  Segment part 20.            Intra module refs:   ?Subroutine13
                                                   ?Subroutine3
                                                   ?Subroutine6
                                                   MRFI_GetRadioState
                                                   MRFI_Init
                                                   MRFI_RxIdle
                                                   MRFI_RxOn
                                                   MRFI_Sleep
                                                   MRFI_Transmit
                                                   MRFI_WakeUp
           LOCAL                   ADDRESS         
           =====                   =======         
           mrfiRadioState          02A0 
    -------------------------------------------------------------------------
DATA16_Z
  Relative segment, address: 02A1 - 02B8 (0x18 bytes), align: 0
  Segment part 21.            Intra module refs:   MRFI_Init
                                                   MRFI_Receive
                                                   Mrfi_SyncPinRxIsr
                                                   Segment part 50
           LOCAL                   ADDRESS         
           =====                   =======         
           mrfiIncomingPacket      02A1 
    -------------------------------------------------------------------------
DATA16_Z
  Relative segment, address: 02B9 - 02B9 (0x1 bytes), align: 0
  Segment part 22.            Intra module refs:   MRFI_Init
                                                   MRFI_RandomByte
           LOCAL                   ADDRESS         
           =====                   =======         
           mrfiRndSeed             02B9 
    -------------------------------------------------------------------------
DATA16_Z
  Relative segment, address: 02BA - 02BA (0x1 bytes), align: 0
  Segment part 23.            Intra module refs:   MRFI_PostKillSem
           LOCAL                   ADDRESS         
           =====                   =======         
           sKillSem                02BA 
    -------------------------------------------------------------------------
DATA16_Z
  Relative segment, address: 02BB - 02BB (0x1 bytes), align: 0
  Segment part 24.            Intra module refs:   MRFI_PostKillSem
           LOCAL                   ADDRESS         
           =====                   =======         
           sReplyDelayContext      02BB 
    -------------------------------------------------------------------------
DATA16_Z
  Relative segment, address: 027E - 027F (0x2 bytes), align: 1
  Segment part 25.            Intra module refs:   MRFI_Init
           LOCAL                   ADDRESS         
           =====                   =======         
           sReplyDelayScalar       027E 
    -------------------------------------------------------------------------
DATA16_Z
  Relative segment, address: 0280 - 0281 (0x2 bytes), align: 1
  Segment part 26.            Intra module refs:   MRFI_Init
                                                   MRFI_Transmit
           LOCAL                   ADDRESS         
           =====                   =======         
           sBackoffHelper          0280 
    -------------------------------------------------------------------------
DATA16_C
  Relative segment, address: 81FF - 8202 (0x4 bytes), align: 0
  Segment part 27.            Intra module refs:   MRFI_RxAddrIsFiltered
           ENTRY                   ADDRESS         REF BY
           =====                   =======         ======
           mrfiBroadcastAddr       81FF            nwk_getBCastAddress (nwk_globals)
    -------------------------------------------------------------------------
DATA16_C
  Relative segment, address: 8203 - 8206 (0x4 bytes), align: 0
  Segment part 28.            Intra module refs:   MRFI_SetLogicalChannel
           LOCAL                   ADDRESS         
           =====                   =======         
           mrfiLogicalChanTable    8203 
    -------------------------------------------------------------------------
DATA16_C
  Relative segment, address: 8207 - 8209 (0x3 bytes), align: 0
  Segment part 29.            Intra module refs:   MRFI_SetRFPwr
           LOCAL                   ADDRESS         
           =====                   =======         
           mrfiRFPowerTable        8207 
    -------------------------------------------------------------------------
DATA16_Z
  Relative segment, address: 02BC - 02BC (0x1 bytes), align: 0
  Segment part 30.            Intra module refs:   MRFI_RxAddrIsFiltered
           LOCAL                   ADDRESS         
           =====                   =======         
           mrfiRxFilterEnabled     02BC 
    -------------------------------------------------------------------------
DATA16_I
  Relative segment, address: 0202 - 0205 (0x4 bytes), align: 0
  Segment part 31.            Intra module refs:   MRFI_RxAddrIsFiltered
           LOCAL                   ADDRESS         
           =====                   =======         
           mrfiRxFilterAddr        0202 
    -------------------------------------------------------------------------
<CODE> 1 (was CODE)
  Relative segment, address: 8328 - 8365 (0x3e bytes), align: 1
  Segment part 34.            Intra module refs:   Mrfi_SyncPinRxIsr
           ENTRY                   ADDRESS         REF BY
           =====                   =======         ======
           MRFI_RxAddrIsFiltered   8328 
               CSTACK = 00000000 ( 00000006 )
    -------------------------------------------------------------------------
<CODE> 1 (was CODE)
  Relative segment, address: 8366 - 837B (0x16 bytes), align: 1
  Segment part 35.            Intra module refs:   ?Subroutine11
                                                   MRFI_Init
                                                   MRFI_Sleep
                                                   MRFI_Transmit
                                                   Mrfi_RxModeOff
                                                   Mrfi_RxModeOn
                                                   Mrfi_SyncPinRxIsr
           ENTRY                   ADDRESS         REF BY
           =====                   =======         ======
           mrfiSpiCmdStrobe        8366 
               CSTACK = 00000000 ( 00000002 )
    -------------------------------------------------------------------------
<CODE> 1 (was CODE)
  Relative segment, address: 837C - 8383 (0x8 bytes), align: 1
  Segment part 36.            Intra module refs:   mrfiSpiCmdStrobe
                                                   spiRegAccess
           LOCAL                   ADDRESS         
           =====                   =======         
           ?Subroutine0            837C 
    -------------------------------------------------------------------------
<CODE> 1 (was CODE)
  Relative segment, address: 8384 - 838B (0x8 bytes), align: 1
  Segment part 37.            Intra module refs:   ?Subroutine0
                                                   spiBurstFifoAccess
    -------------------------------------------------------------------------
<CODE> 1 (was CODE)
  Relative segment, address: 838C - 83E5 (0x5a bytes), align: 1
  Segment part 38.            Intra module refs:   mrfiSpiReadRxFifo
                                                   mrfiSpiWriteTxFifo
           LOCAL                   ADDRESS         
           =====                   =======         
           spiBurstFifoAccess      838C 
               CSTACK = 00000000 ( 00000002 )
    -------------------------------------------------------------------------
<CODE> 1 (was CODE)
  Relative segment, address: 83E6 - 83E9 (0x4 bytes), align: 1
  Segment part 39.            Intra module refs:   mrfiSpiCmdStrobe
                                                   spiBurstFifoAccess
                                                   spiRegAccess
           LOCAL                   ADDRESS         
           =====                   =======         
           ?Subroutine4            83E6 
    -------------------------------------------------------------------------
<CODE> 1 (was CODE)
  Relative segment, address: 83EA - 83F3 (0xa bytes), align: 1
  Segment part 40.            Intra module refs:   ?Subroutine4
                                                   MRFI_Init
                                                   spiBurstFifoAccess
           LOCAL                   ADDRESS         
           =====                   =======         
           ?Subroutine19           83EA 
    -------------------------------------------------------------------------
<CODE> 1 (was CODE)
  Relative segment, address: 83F4 - 83FD (0xa bytes), align: 1
  Segment part 41.            Intra module refs:   Mrfi_SyncPinRxIsr
           ENTRY                   ADDRESS         REF BY
           =====                   =======         ======
           mrfiSpiReadRxFifo       83F4 
               calls direct
               CSTACK = 00000000 ( 00000002 )
    -------------------------------------------------------------------------
<CODE> 1 (was CODE)
  Relative segment, address: 83FE - 8413 (0x16 bytes), align: 1
  Segment part 42.            Intra module refs:   mrfiSpiReadReg
                                                   mrfiSpiWriteReg
           LOCAL                   ADDRESS         
           =====                   =======         
           spiRegAccess            83FE 
               CSTACK = 00000000 ( 00000002 )
    -------------------------------------------------------------------------
<CODE> 1 (was CODE)
  Relative segment, address: 8414 - 841B (0x8 bytes), align: 1
  Segment part 43.            Intra module refs:   ?Subroutine0
                                                   MRFI_Init
                                                   spiBurstFifoAccess
                                                   spiRegAccess
           LOCAL                   ADDRESS         
           =====                   =======         
           ?Subroutine12           8414 
    -------------------------------------------------------------------------
<CODE> 1 (was CODE)
  Relative segment, address: 841C - 8429 (0xe bytes), align: 1
  Segment part 44.            Intra module refs:   mrfiSpiCmdStrobe
                                                   spiRegAccess
           LOCAL                   ADDRESS         
           =====                   =======         
           ?Subroutine8            841C 
    -------------------------------------------------------------------------
<CODE> 1 (was CODE)
  Relative segment, address: 842A - 8439 (0x10 bytes), align: 1
  Segment part 45.            Intra module refs:   ?Subroutine8
                                                   spiBurstFifoAccess
           LOCAL                   ADDRESS         
           =====                   =======         
           ?Subroutine18           842A 
    -------------------------------------------------------------------------
<CODE> 1 (was CODE)
  Relative segment, address: 843A - 844D (0x14 bytes), align: 1
  Segment part 46.            Intra module refs:   ?Subroutine14
                                                   MRFI_Init
                                                   MRFI_Rssi
                                                   Mrfi_SyncPinRxIsr
           ENTRY                   ADDRESS         REF BY
           =====                   =======         ======
           mrfiSpiReadReg          843A 
               calls direct
               CSTACK = 00000000 ( 00000002 )
    -------------------------------------------------------------------------
<CODE> 1 (was CODE)
  Relative segment, address: 844E - 8457 (0xa bytes), align: 1
  Segment part 47.            Intra module refs:   ?Subroutine5
                                                   mrfiSpiCmdStrobe
                                                   mrfiSpiReadReg
           LOCAL                   ADDRESS         
           =====                   =======         
           ?Subroutine17           844E 
    -------------------------------------------------------------------------
<CODE> 1 (was CODE)
  Relative segment, address: 8458 - 8513 (0xbc bytes), align: 1
  Segment part 48.            Intra module refs:   MRFI_GpioIsr
           LOCAL                   ADDRESS         
           =====                   =======         
           Mrfi_SyncPinRxIsr       8458 
               calls direct and indirect
               CSTACK = 00000000 ( 00000008 )
    -------------------------------------------------------------------------
<CODE> 1 (was CODE)
  Relative segment, address: 8514 - 8517 (0x4 bytes), align: 1
  Segment part 49.            Intra module refs:   MRFI_Init
                                                   Mrfi_SyncPinRxIsr
           LOCAL                   ADDRESS         
           =====                   =======         
           ?Subroutine15           8514 
    -------------------------------------------------------------------------
<CODE> 1 (was CODE)
  Relative segment, address: 8518 - 8521 (0xa bytes), align: 1
  Segment part 50.            Intra module refs:   ?Subroutine15
                                                   MRFI_Init
    -------------------------------------------------------------------------
<CODE> 1 (was CODE)
  Relative segment, address: 8522 - 853B (0x1a bytes), align: 1
  Segment part 51.            Intra module refs:   BSP_GpioPort1Isr
           ENTRY                   ADDRESS         REF BY
           =====                   =======         ======
           MRFI_GpioIsr            8522 
               calls direct
               CSTACK = 00000000 ( 00000002 )
    -------------------------------------------------------------------------
<CODE> 1 (was CODE)
  Relative segment, address: 853C - 8551 (0x16 bytes), align: 1
  Segment part 52.            Intra module refs:   BSP_GpioPort1Isr::??INTVEC 6
           ENTRY                   ADDRESS         REF BY
           =====                   =======         ======
           BSP_GpioPort1Isr        853C 
               interrupt function
               calls direct
               CSTACK = 00000000 ( 0000000C )
    -------------------------------------------------------------------------
<CODE> 1 (was CODE)
  Relative segment, address: 8552 - 8563 (0x12 bytes), align: 1
  Segment part 53.            Intra module refs:   ?Subroutine13
                                                   MRFI_Init
                                                   MRFI_Transmit
                                                   MRFI_WakeUp
           ENTRY                   ADDRESS         REF BY
           =====                   =======         ======
           mrfiSpiWriteReg         8552 
               calls direct
               CSTACK = 00000000 ( 00000002 )
    -------------------------------------------------------------------------
CODE
  Segment part 54. NOT NEEDED.
           ENTRY                   ADDRESS         REF BY
           =====                   =======         ======
           MRFI_DisableRxAddrFilter
                                   
               calls direct
    -------------------------------------------------------------------------
CODE
  Segment part 55. NOT NEEDED.
           ENTRY                   ADDRESS         REF BY
           =====                   =======         ======
           MRFI_EnableRxAddrFilter
                                   
               calls direct
    -------------------------------------------------------------------------
<CODE> 1 (was CODE)
  Relative segment, address: 8564 - 856D (0xa bytes), align: 1
  Segment part 56.            Intra module refs:   MRFI_Transmit
                                                   spiBurstFifoAccess
           LOCAL                   ADDRESS         
           =====                   =======         
           ?Subroutine7            8564 
    -------------------------------------------------------------------------
CODE
  Segment part 57. NOT NEEDED.
           ENTRY                   ADDRESS         REF BY
           =====                   =======         ======
           MRFI_SetRxAddrFilter    
               calls direct
    -------------------------------------------------------------------------
<CODE> 1 (was CODE)
  Relative segment, address: 856E - 8581 (0x14 bytes), align: 1
  Segment part 58.            Intra module refs:   ?Subroutine13
                                                   MRFI_RxOn
           LOCAL                   ADDRESS         
           =====                   =======         
           Mrfi_RxModeOn           856E 
               calls direct
               CSTACK = 00000000 ( 00000002 )
    -------------------------------------------------------------------------
<CODE> 1 (was CODE)
  Relative segment, address: 8582 - 8593 (0x12 bytes), align: 1
  Segment part 59.            Intra module refs:   ?Subroutine5
                                                   MRFI_Init
                                                   MRFI_RxIdle
                                                   MRFI_Transmit
           LOCAL                   ADDRESS         
           =====                   =======         
           Mrfi_RxModeOff          8582 
               calls direct
               CSTACK = 00000000 ( 00000002 )
    -------------------------------------------------------------------------
<CODE> 1 (was CODE)
  Relative segment, address: 8594 - 859B (0x8 bytes), align: 1
  Segment part 60.            Intra module refs:   MRFI_GpioIsr
                                                   MRFI_Init
                                                   MRFI_Transmit
                                                   Mrfi_RxModeOff
                                                   Mrfi_RxModeOn
           LOCAL                   ADDRESS         
           =====                   =======         
           ?Subroutine16           8594 
    -------------------------------------------------------------------------
<CODE> 1 (was CODE)
  Relative segment, address: 859C - 85AD (0x12 bytes), align: 1
  Segment part 61.            Intra module refs:   MRFI_Init
           ENTRY                   ADDRESS         REF BY
           =====                   =======         ======
           MRFI_SetRFPwr           859C            nwk_radioControl (nwk_ioctl)
               calls direct
               CSTACK = 00000000 ( 00000002 )
    -------------------------------------------------------------------------
<CODE> 1 (was CODE)
  Relative segment, address: 85AE - 85BF (0x12 bytes), align: 1
  Segment part 62.            Intra module refs:   MRFI_SetLogicalChannel
                                                   MRFI_SetRFPwr
                                                   MRFI_Transmit
           LOCAL                   ADDRESS         
           =====                   =======         
           ?Subroutine13           85AE 
    -------------------------------------------------------------------------
<CODE> 1 (was CODE)
  Relative segment, address: 85C0 - 85D1 (0x12 bytes), align: 1
  Segment part 63.            Intra module refs:   MRFI_Init
           ENTRY                   ADDRESS         REF BY
           =====                   =======         ======
           MRFI_SetLogicalChannel
                                   85C0 
               calls direct
               CSTACK = 00000000 ( 00000002 )
    -------------------------------------------------------------------------
<CODE> 1 (was CODE)
  Relative segment, address: 85D2 - 85D9 (0x8 bytes), align: 1
  Segment part 64.            Intra module refs:   MRFI_SetLogicalChannel
                                                   MRFI_SetRFPwr
           LOCAL                   ADDRESS         
           =====                   =======         
           ?Subroutine5            85D2 
    -------------------------------------------------------------------------
<CODE> 1 (was CODE)
  Relative segment, address: 85DA - 85E5 (0xc bytes), align: 1
  Segment part 65.            Intra module refs:   MRFI_Transmit
           ENTRY                   ADDRESS         REF BY
           =====                   =======         ======
           mrfiSpiWriteTxFifo      85DA 
               calls direct
               CSTACK = 00000000 ( 00000002 )
    -------------------------------------------------------------------------
<CODE> 1 (was CODE)
  Relative segment, address: 85E6 - 8619 (0x34 bytes), align: 1
  Segment part 66.            Intra module refs:   MRFI_Init
           ENTRY                   ADDRESS         REF BY
           =====                   =======         ======
           mrfiSpiInit             85E6 
               CSTACK = 00000000 ( 00000002 )
    -------------------------------------------------------------------------
<CODE> 1 (was CODE)
  Relative segment, address: 861A - 861F (0x6 bytes), align: 1
  Segment part 67.
           ENTRY                   ADDRESS         REF BY
           =====                   =======         ======
           MRFI_GetRadioState      861A            SMPL_LinkListen (nwk_api)
               CSTACK = 00000000 ( 00000002 )
    -------------------------------------------------------------------------
<CODE> 1 (was CODE)
  Relative segment, address: 8620 - 862B (0xc bytes), align: 1
  Segment part 68.
           ENTRY                   ADDRESS         REF BY
           =====                   =======         ======
           MRFI_PostKillSem        8620            nwk_isConnectionValid (nwk)
                                                   nwk_processJoin (nwk_join)
                                                   nwk_processLink (nwk_link)
                                                   nwk_processMgmt (nwk_mgmt)
                                                   nwk_processPing (nwk_ping)
               CSTACK = 00000000 ( 00000002 )
    -------------------------------------------------------------------------
CODE
  Segment part 69. NOT NEEDED.
           ENTRY                   ADDRESS         REF BY
           =====                   =======         ======
           MRFI_ReplyDelay         
               calls direct
    -------------------------------------------------------------------------
<CODE> 1 (was CODE)
  Relative segment, address: 862C - 864B (0x20 bytes), align: 1
  Segment part 70.            Intra module refs:   ?Subroutine14
                                                   MRFI_DelayMs
                                                   MRFI_Init
                                                   MRFI_Transmit
           LOCAL                   ADDRESS         
           =====                   =======         
           Mrfi_DelayUsec          862C 
               calls direct
               CSTACK = 00000000 ( 00000006 )
    -------------------------------------------------------------------------
<CODE> 1 (was CODE)
  Relative segment, address: 864C - 8651 (0x6 bytes), align: 1
  Segment part 71.            Intra module refs:   MRFI_Init
                                                   MRFI_RxAddrIsFiltered
                                                   Mrfi_DelayUsec
                                                   Mrfi_SyncPinRxIsr
           LOCAL                   ADDRESS         
           =====                   =======         
           ?Subroutine2            864C 
    -------------------------------------------------------------------------
<CODE> 1 (was CODE)
  Relative segment, address: 8652 - 865D (0xc bytes), align: 1
  Segment part 72.            Intra module refs:   Mrfi_DelayUsec
           LOCAL                   ADDRESS         
           =====                   =======         
           ?Subroutine9            8652 
    -------------------------------------------------------------------------
<CODE> 1 (was CODE)
  Relative segment, address: 865E - 8675 (0x18 bytes), align: 1
  Segment part 73.
           ENTRY                   ADDRESS         REF BY
           =====                   =======         ======
           MRFI_DelayMs            865E            SMPL_LinkListen (nwk_api)
                                                   nwk_replayFrame (nwk_frame)
               calls direct
               CSTACK = 00000000 ( 00000004 )
    -------------------------------------------------------------------------
<CODE> 1 (was CODE)
  Relative segment, address: 8676 - 868B (0x16 bytes), align: 1
  Segment part 74.            Intra module refs:   MRFI_Transmit
           ENTRY                   ADDRESS         REF BY
           =====                   =======         ======
           MRFI_RandomByte         8676            nwk_frameInit (nwk_frame)
                                                   nwk_joinInit (nwk_join)
                                                   nwk_linkInit (nwk_link)
                                                   nwk_mgmtInit (nwk_mgmt)
                                                   nwk_pingInit (nwk_ping)
               CSTACK = 00000000 ( 00000002 )
    -------------------------------------------------------------------------
<CODE> 1 (was CODE)
  Relative segment, address: 868C - 86A5 (0x1a bytes), align: 1
  Segment part 75.
           ENTRY                   ADDRESS         REF BY
           =====                   =======         ======
           MRFI_Rssi               868C            nwk_radioControl (nwk_ioctl)
               calls direct
               CSTACK = 00000000 ( 00000004 )
    -------------------------------------------------------------------------
<CODE> 1 (was CODE)
  Relative segment, address: 86A6 - 86E7 (0x42 bytes), align: 1
  Segment part 76.
           ENTRY                   ADDRESS         REF BY
           =====                   =======         ======
           MRFI_WakeUp             86A6            SMPL_Init (nwk_api)
                                                   SMPL_LinkListen (nwk_api)
                                                   nwk_radioControl (nwk_ioctl)
               calls direct
               CSTACK = 00000000 ( 00000002 )
    -------------------------------------------------------------------------
<CODE> 1 (was CODE)
  Relative segment, address: 86E8 - 86FF (0x18 bytes), align: 1
  Segment part 77.            Intra module refs:   MRFI_WakeUp
                                                   Mrfi_RxModeOff
           LOCAL                   ADDRESS         
           =====                   =======         
           ?Subroutine11           86E8 
    -------------------------------------------------------------------------
<CODE> 1 (was CODE)
  Relative segment, address: 8700 - 870F (0x10 bytes), align: 1
  Segment part 78.            Intra module refs:   MRFI_Sleep
           ENTRY                   ADDRESS         REF BY
           =====                   =======         ======
           MRFI_RxIdle             8700            SMPL_LinkListen (nwk_api)
                                                   nwk_radioControl (nwk_ioctl)
               calls direct
               CSTACK = 00000000 ( 00000002 )
    -------------------------------------------------------------------------
<CODE> 1 (was CODE)
  Relative segment, address: 8710 - 872F (0x20 bytes), align: 1
  Segment part 79.
           ENTRY                   ADDRESS         REF BY
           =====                   =======         ======
           MRFI_Sleep              8710            SMPL_LinkListen (nwk_api)
                                                   nwk_radioControl (nwk_ioctl)
               calls direct
               CSTACK = 00000000 ( 00000002 )
    -------------------------------------------------------------------------
<CODE> 1 (was CODE)
  Relative segment, address: 8730 - 8741 (0x12 bytes), align: 1
  Segment part 80.
           ENTRY                   ADDRESS         REF BY
           =====                   =======         ======
           MRFI_RxOn               8730            SMPL_Init (nwk_api)
                                                   SMPL_LinkListen (nwk_api)
                                                   nwk_radioControl (nwk_ioctl)
               calls direct
               CSTACK = 00000000 ( 00000002 )
    -------------------------------------------------------------------------
<CODE> 1 (was CODE)
  Relative segment, address: 8742 - 8755 (0x14 bytes), align: 1
  Segment part 81.            Intra module refs:   MRFI_RxIdle
                                                   MRFI_RxOn
           LOCAL                   ADDRESS         
           =====                   =======         
           ?Subroutine6            8742 
    -------------------------------------------------------------------------
<CODE> 1 (was CODE)
  Relative segment, address: 8756 - 8761 (0xc bytes), align: 1
  Segment part 82.
           ENTRY                   ADDRESS         REF BY
           =====                   =======         ======
           MRFI_Receive            8756            MRFI_RxCompleteISR (nwk_frame)
               CSTACK = 00000000 ( 00000002 )
    -------------------------------------------------------------------------
<CODE> 1 (was CODE)
  Relative segment, address: 8762 - 8835 (0xd4 bytes), align: 1
  Segment part 83.
           ENTRY                   ADDRESS         REF BY
           =====                   =======         ======
           MRFI_Transmit           8762            nwk_SendEmptyPollRspFrame (nwk_frame)
                                                   nwk_sendFrame (nwk_frame)
               calls direct and indirect
               CSTACK = 00000000 ( 0000000A )
    -------------------------------------------------------------------------
<CODE> 1 (was CODE)
  Relative segment, address: 8836 - 8855 (0x20 bytes), align: 1
  Segment part 84.            Intra module refs:   MRFI_Rssi
                                                   MRFI_Transmit
           LOCAL                   ADDRESS         
           =====                   =======         
           ?Subroutine14           8836 
    -------------------------------------------------------------------------
<CODE> 1 (was CODE)
  Relative segment, address: 8856 - 898F (0x13a bytes), align: 1
  Segment part 85.
           ENTRY                   ADDRESS         REF BY
           =====                   =======         ======
           MRFI_Init               8856            SMPL_Init (nwk_api)
               calls direct and indirect
               CSTACK = 00000000 ( 00000006 )
    -------------------------------------------------------------------------
<CODE> 1 (was CODE)
  Relative segment, address: A83E - A84D (0x10 bytes), align: 1
  Segment part 86.            Intra module refs:   MRFI_Init
                                                   MRFI_Rssi
                                                   MRFI_Transmit
                                                   Mrfi_SyncPinRxIsr
                                                   mrfiSpiWriteReg
           LOCAL                   ADDRESS         
           =====                   =======         
           ?Subroutine3            A83E 
    -------------------------------------------------------------------------
<CODE> 1 (was CODE)
  Relative segment, address: A58A - A5B1 (0x28 bytes), align: 1
  Segment part 33.            Intra module refs:   MRFI_Rssi
                                                   Mrfi_SyncPinRxIsr
           LOCAL                   ADDRESS         
           =====                   =======         
           Mrfi_CalculateRssi      A58A 
               CSTACK = 00000000 ( 00000002 )
    -------------------------------------------------------------------------
INTVEC
  Common segment, address: FFE0 - FFE7 (0x8 bytes), align: 1
  Segment part 17. ROOT.
           ENTRY                   ADDRESS         REF BY
           =====                   =======         ======
           BSP_GpioPort1Isr::??INTVEC 6
                                   FFE6 
    -------------------------------------------------------------------------
CSTACK
  Segment part 18. NOT NEEDED.
    -------------------------------------------------------------------------
DATA16_ID
  Relative segment, address: 827C - 827F (0x4 bytes), align: 0
  Segment part 32.            Intra module refs:   mrfiRxFilterAddr
    -------------------------------------------------------------------------
CODE
  Segment part 87. TENTATIVE. Used definition from ADC10_init
           ENTRY                   ADDRESS         REF BY
           =====                   =======         ======
           ?setjmp_save_r4         
    -------------------------------------------------------------------------
CODE
  Segment part 88. TENTATIVE. Used definition from ADC10_init
           ENTRY                   ADDRESS         REF BY
           =====                   =======         ======
           ?setjmp_save_r5         

    *************************************************************************

  FILE NAME : C:\Users\flb.bwrclt61-1\Desktop\eZ430-RF2500\IARworkspace\ez430-rf2500_wsm\CC2500 Sensor Demo-Access Point\Obj\nwk.r43
  PROGRAM MODULE, NAME : nwk

  SEGMENTS IN THE MODULE
  ======================
DATA16_I
  Relative segment, address: 0206 - 027D (0x78 bytes), align: 0
  Segment part 2.             Intra module refs:   initializeConnection
                                                   map_lid2idx
                                                   nwk_allocateLocalRxPort
                                                   nwk_findAlreadyJoined
                                                   nwk_findPeer
                                                   nwk_getConnInfo
                                                   nwk_getNextConnection
                                                   nwk_getSFInfoPtr
                                                   nwk_isConnectionValid
                                                   nwk_isLinkDuplicate
                                                   nwk_nwkInit
                                                   nwk_saveJoinedDevice
           LOCAL                   ADDRESS         
           =====                   =======         
           sPersistInfo            0206 
    -------------------------------------------------------------------------
<CODE> 1 (was CODE)
  Relative segment, address: 9C58 - 9CDD (0x86 bytes), align: 1
  Segment part 28.
           ENTRY                   ADDRESS         REF BY
           =====                   =======         ======
           nwk_nwkInit             9C58            SMPL_Init (nwk_api)
               calls direct
               CSTACK = 00000000 ( 00000004 )
    -------------------------------------------------------------------------
<CODE> 1 (was CODE)
  Relative segment, address: 9F9C - 9FE7 (0x4c bytes), align: 1
  Segment part 27.
           ENTRY                   ADDRESS         REF BY
           =====                   =======         ======
           nwk_getNextConnection   9F9C            smpl_send_link_reply (nwk_link)
               calls direct
               CSTACK = 00000000 ( 00000004 )
    -------------------------------------------------------------------------
<CODE> 1 (was CODE)
  Relative segment, address: 9694 - 969B (0x8 bytes), align: 1
  Segment part 14.            Intra module refs:   nwk_isConnectionValid
                                                   nwk_saveJoinedDevice
           LOCAL                   ADDRESS         
           =====                   =======         
           ?Subroutine1            9694 
    -------------------------------------------------------------------------
<CODE> 1 (was CODE)
  Relative segment, address: 969C - 969D (0x2 bytes), align: 1
  Segment part 15.            Intra module refs:   ?Subroutine1
                                                   nwk_allocateLocalRxPort
                                                   nwk_isLinkDuplicate
    -------------------------------------------------------------------------
<CODE> 1 (was CODE)
  Relative segment, address: 969E - 96A7 (0xa bytes), align: 1
  Segment part 16.            Intra module refs:   ?Subroutine1
                                                   ?Subroutine2
                                                   Segment part 15
           LOCAL                   ADDRESS         
           =====                   =======         
           ?Subroutine3            969E 
    -------------------------------------------------------------------------
<CODE> 1 (was CODE)
  Relative segment, address: 96A8 - 96CD (0x26 bytes), align: 1
  Segment part 17.
           ENTRY                   ADDRESS         REF BY
           =====                   =======         ======
           nwk_checkConnInfo       96A8            SMPL_Receive (nwk_api)
               CSTACK = 00000000 ( 00000002 )
    -------------------------------------------------------------------------
<CODE> 1 (was CODE)
  Relative segment, address: 96CE - 96FB (0x2e bytes), align: 1
  Segment part 18.            Intra module refs:   nwk_findAlreadyJoined
                                                   nwk_getNextConnection
           LOCAL                   ADDRESS         
           =====                   =======         
           initializeConnection    96CE 
               calls direct
               CSTACK = 00000000 ( 00000004 )
    -------------------------------------------------------------------------
<CODE> 1 (was CODE)
  Relative segment, address: 96FC - 972D (0x32 bytes), align: 1
  Segment part 19.
           ENTRY                   ADDRESS         REF BY
           =====                   =======         ======
           nwk_findAlreadyJoined   96FC            smpl_send_link_reply (nwk_link)
               calls direct
               CSTACK = 00000000 ( 00000008 )
    -------------------------------------------------------------------------
<CODE> 1 (was CODE)
  Relative segment, address: 972E - 977F (0x52 bytes), align: 1
  Segment part 20.
           ENTRY                   ADDRESS         REF BY
           =====                   =======         ======
           nwk_saveJoinedDevice    972E            smpl_send_join_reply (nwk_join)
               calls direct
               CSTACK = 00000000 ( 0000000A )
    -------------------------------------------------------------------------
<CODE> 1 (was CODE)
  Relative segment, address: 9780 - 9785 (0x6 bytes), align: 1
  Segment part 21.
           ENTRY                   ADDRESS         REF BY
           =====                   =======         ======
           nwk_getSFInfoPtr        9780            nwk_joinInit (nwk_join)
               CSTACK = 00000000 ( 00000002 )
    -------------------------------------------------------------------------
CODE
  Segment part 22. NOT NEEDED.
           ENTRY                   ADDRESS         REF BY
           =====                   =======         ======
           nwk_findAddressMatch    
               calls direct
    -------------------------------------------------------------------------
<CODE> 1 (was CODE)
  Relative segment, address: 9786 - 9791 (0xc bytes), align: 1
  Segment part 23.            Intra module refs:   nwk_findAlreadyJoined
           LOCAL                   ADDRESS         
           =====                   =======         
           ?Subroutine2            9786 
    -------------------------------------------------------------------------
<CODE> 1 (was CODE)
  Relative segment, address: A926 - A92B (0x6 bytes), align: 1
  Segment part 26.
           ENTRY                   ADDRESS         REF BY
           =====                   =======         ======
           nwk_freeConnection      A926            nwk_connectionControl (nwk_ioctl)
                                                   smpl_send_link_reply (nwk_link)
                                                   smpl_send_unlink_reply (nwk_link)
               CSTACK = 00000000 ( 00000002 )
    -------------------------------------------------------------------------
<CODE> 1 (was CODE)
  Relative segment, address: A50A - A535 (0x2c bytes), align: 1
  Segment part 25.
           ENTRY                   ADDRESS         REF BY
           =====                   =======         ======
           nwk_getConnInfo         A50A            SMPL_Receive (nwk_api)
                                                   nwk_QfindOldest (nwk_QMgmt)
                                                   nwk_connectionControl (nwk_ioctl)
                                                   nwk_radioControl (nwk_ioctl)
                                                   nwk_retrieveFrame (nwk_frame)
               calls direct
               CSTACK = 00000000 ( 00000004 )
    -------------------------------------------------------------------------
<CODE> 1 (was CODE)
  Relative segment, address: A242 - A27B (0x3a bytes), align: 1
  Segment part 24.
           ENTRY                   ADDRESS         REF BY
           =====                   =======         ======
           nwk_isLinkDuplicate     A242            smpl_send_link_reply (nwk_link)
               calls direct
               CSTACK = 00000000 ( 0000000A )
    -------------------------------------------------------------------------
<CODE> 1 (was CODE)
  Relative segment, address: 9EFA - 9F4B (0x52 bytes), align: 1
  Segment part 13.
           ENTRY                   ADDRESS         REF BY
           =====                   =======         ======
           nwk_isConnectionValid   9EFA            dispatchFrame (nwk_frame)
               calls direct
               CSTACK = 00000000 ( 0000000C )
    -------------------------------------------------------------------------
<CODE> 1 (was CODE)
  Relative segment, address: 9792 - 9853 (0xc2 bytes), align: 1
  Segment part 12.
           ENTRY                   ADDRESS         REF BY
           =====                   =======         ======
           nwk_allocateLocalRxPort
                                   9792            smpl_send_link_reply (nwk_link)
               calls direct
               CSTACK = 00000000 ( 00000014 )
    -------------------------------------------------------------------------
<CODE> 1 (was CODE)
  Relative segment, address: 9592 - 95BD (0x2c bytes), align: 1
  Segment part 6.
           ENTRY                   ADDRESS         REF BY
           =====                   =======         ======
           nwk_getNumObjectFromMsg
                                   9592            smpl_send_join_reply (nwk_join)
                                                   smpl_send_link_reply (nwk_link)
               calls direct
               CSTACK = 00000000 ( 00000006 )
    -------------------------------------------------------------------------
<CODE> 1 (was CODE)
  Relative segment, address: 95BE - 95C3 (0x6 bytes), align: 1
  Segment part 7.             Intra module refs:   nwk_getNumObjectFromMsg
                                                   nwk_isValidReply
           LOCAL                   ADDRESS         
           =====                   =======         
           ?Subroutine0            95BE 
    -------------------------------------------------------------------------
<CODE> 1 (was CODE)
  Relative segment, address: 95C4 - 95EB (0x28 bytes), align: 1
  Segment part 8.
           ENTRY                   ADDRESS         REF BY
           =====                   =======         ======
           nwk_checkAppMsgTID      95C4            send_poll_reply (nwk_mgmt)
               CSTACK = 00000000 ( 00000002 )
    -------------------------------------------------------------------------
<CODE> 1 (was CODE)
  Relative segment, address: 95EC - 962D (0x42 bytes), align: 1
  Segment part 9.
           ENTRY                   ADDRESS         REF BY
           =====                   =======         ======
           nwk_findPeer            95EC            smpl_send_unlink_reply (nwk_link)
               calls direct
               CSTACK = 00000000 ( 0000000A )
    -------------------------------------------------------------------------
<CODE> 1 (was CODE)
  Relative segment, address: 962E - 9657 (0x2a bytes), align: 1
  Segment part 10.            Intra module refs:   initializeConnection
                                                   nwk_getConnInfo
           LOCAL                   ADDRESS         
           =====                   =======         
           map_lid2idx             962E 
               CSTACK = 00000000 ( 00000002 )
    -------------------------------------------------------------------------
<CODE> 1 (was CODE)
  Relative segment, address: 9658 - 9693 (0x3c bytes), align: 1
  Segment part 11.
           ENTRY                   ADDRESS         REF BY
           =====                   =======         ======
           nwk_isValidReply        9658            nwk_processJoin (nwk_join)
                                                   nwk_processLink (nwk_link)
                                                   nwk_processMgmt (nwk_mgmt)
                                                   nwk_processPing (nwk_ping)
               calls direct
               CSTACK = 00000000 ( 00000006 )
    -------------------------------------------------------------------------
<CODE> 1 (was CODE)
  Relative segment, address: A2EA - A31F (0x36 bytes), align: 1
  Segment part 5.
           ENTRY                   ADDRESS         REF BY
           =====                   =======         ======
           nwk_putNumObjectIntoMsg
                                   A2EA            smpl_send_join_reply (nwk_join)
               calls direct
               CSTACK = 00000000 ( 00000008 )
    -------------------------------------------------------------------------
<CODE> 1 (was CODE)
  Relative segment, address: A942 - A945 (0x4 bytes), align: 1
  Segment part 4.
           ENTRY                   ADDRESS         REF BY
           =====                   =======         ======
           nwk_NVObj               A942            SMPL_Ioctl (nwk_api)
               CSTACK = 00000000 ( 00000002 )
    -------------------------------------------------------------------------
CSTACK
  Segment part 1. NOT NEEDED.
    -------------------------------------------------------------------------
DATA16_ID
  Relative segment, address: 8280 - 82F7 (0x78 bytes), align: 0
  Segment part 3.             Intra module refs:   sPersistInfo
    -------------------------------------------------------------------------
CODE
  Segment part 29. TENTATIVE. Used definition from ADC10_init
           ENTRY                   ADDRESS         REF BY
           =====                   =======         ======
           ?setjmp_save_r4         
    -------------------------------------------------------------------------
CODE
  Segment part 30. TENTATIVE. Used definition from ADC10_init
           ENTRY                   ADDRESS         REF BY
           =====                   =======         ======
           ?setjmp_save_r5         

    *************************************************************************

  FILE NAME : C:\Users\flb.bwrclt61-1\Desktop\eZ430-RF2500\IARworkspace\ez430-rf2500_wsm\CC2500 Sensor Demo-Access Point\Obj\nwk_QMgmt.r43
  PROGRAM MODULE, NAME : nwk_QMgmt

  SEGMENTS IN THE MODULE
  ======================
DATA16_Z
  Relative segment, address: 02BD - 0358 (0x9c bytes), align: 0
  Segment part 2.             Intra module refs:   nwk_QInit
                                                   nwk_QadjustOrder
                                                   nwk_QfindOldest
                                                   nwk_QfindSlot
                                                   nwk_getQ
           LOCAL                   ADDRESS         
           =====                   =======         
           sInFrameQ               02BD 
    -------------------------------------------------------------------------
DATA16_Z
  Relative segment, address: 0359 - 038C (0x34 bytes), align: 0
  Segment part 3.             Intra module refs:   nwk_QInit
                                                   nwk_QfindSlot
                                                   nwk_getQ
           LOCAL                   ADDRESS         
           =====                   =======         
           sOutFrameQ              0359 
    -------------------------------------------------------------------------
<CODE> 1 (was CODE)
  Relative segment, address: A6B4 - A6CF (0x1c bytes), align: 1
  Segment part 8.
           ENTRY                   ADDRESS         REF BY
           =====                   =======         ======
           nwk_QInit               A6B4            nwk_nwkInit (nwk)
               calls direct
               CSTACK = 00000000 ( 00000002 )
    -------------------------------------------------------------------------
<CODE> 1 (was CODE)
  Relative segment, address: 9ABC - 9B45 (0x8a bytes), align: 1
  Segment part 7.
           ENTRY                   ADDRESS         REF BY
           =====                   =======         ======
           nwk_QfindSlot           9ABC            MRFI_RxCompleteISR (nwk_frame)
                                                   nwk_buildFrame (nwk_frame)
               calls direct
               CSTACK = 00000000 ( 0000000C )
    -------------------------------------------------------------------------
<CODE> 1 (was CODE)
  Relative segment, address: A4DC - A509 (0x2e bytes), align: 1
  Segment part 6.             Intra module refs:   nwk_QfindSlot
           ENTRY                   ADDRESS         REF BY
           =====                   =======         ======
           nwk_QadjustOrder        A4DC            nwk_retrieveFrame (nwk_frame)
                                                   send_poll_reply (nwk_mgmt)
               CSTACK = 00000000 ( 00000002 )
    -------------------------------------------------------------------------
<CODE> 1 (was CODE)
  Relative segment, address: 8F12 - 903D (0x12c bytes), align: 1
  Segment part 5.
           ENTRY                   ADDRESS         REF BY
           =====                   =======         ======
           nwk_QfindOldest         8F12            nwk_getSandFFrame (nwk_frame)
                                                   nwk_retrieveFrame (nwk_frame)
               calls direct
               CSTACK = 00000000 ( 00000016 )
    -------------------------------------------------------------------------
<CODE> 1 (was CODE)
  Relative segment, address: A87E - A88D (0x10 bytes), align: 1
  Segment part 4.
           ENTRY                   ADDRESS         REF BY
           =====                   =======         ======
           nwk_getQ                A87E            isDupSandFFrame (nwk_frame)
                                                   nwk_getSandFFrame (nwk_frame)
               CSTACK = 00000000 ( 00000002 )
    -------------------------------------------------------------------------
CSTACK
  Segment part 1. NOT NEEDED.
    -------------------------------------------------------------------------
CODE
  Segment part 9. TENTATIVE. Used definition from ADC10_init
           ENTRY                   ADDRESS         REF BY
           =====                   =======         ======
           ?setjmp_save_r4         
    -------------------------------------------------------------------------
CODE
  Segment part 10. TENTATIVE. Used definition from ADC10_init
           ENTRY                   ADDRESS         REF BY
           =====                   =======         ======
           ?setjmp_save_r5         

    *************************************************************************

  FILE NAME : C:\Users\flb.bwrclt61-1\Desktop\eZ430-RF2500\IARworkspace\ez430-rf2500_wsm\CC2500 Sensor Demo-Access Point\Obj\nwk_api.r43
  PROGRAM MODULE, NAME : nwk_api

  SEGMENTS IN THE MODULE
  ======================
DATA16_Z
  Relative segment, address: 038D - 038D (0x1 bytes), align: 0
  Segment part 2.             Intra module refs:   SMPL_Init
                                                   SMPL_Ioctl
           LOCAL                   ADDRESS         
           =====                   =======         
           sInit_done              038D 
    -------------------------------------------------------------------------
<CODE> 1 (was CODE)
  Relative segment, address: A536 - A561 (0x2c bytes), align: 1
  Segment part 12.
           ENTRY                   ADDRESS         REF BY
           =====                   =======         ======
           SMPL_Init               A536            main (main_AP)
               calls direct
               CSTACK = 00000000 ( 00000004 )
    -------------------------------------------------------------------------
<CODE> 1 (was CODE)
  Relative segment, address: 9DD8 - 9E45 (0x6e bytes), align: 1
  Segment part 11.
           ENTRY                   ADDRESS         REF BY
           =====                   =======         ======
           SMPL_LinkListen         9DD8            main (main_AP)
               calls direct
               CSTACK = 00000000 ( 0000000A )
    -------------------------------------------------------------------------
CODE
  Segment part 10. NOT NEEDED.
           ENTRY                   ADDRESS         REF BY
           =====                   =======         ======
           SMPL_Send               
               calls direct
    -------------------------------------------------------------------------
CODE
  Segment part 9. NOT NEEDED.
           ENTRY                   ADDRESS         REF BY
           =====                   =======         ======
           SMPL_SendOpt            
               calls direct
    -------------------------------------------------------------------------
<CODE> 1 (was CODE)
  Relative segment, address: A0C4 - A109 (0x46 bytes), align: 1
  Segment part 8.
           ENTRY                   ADDRESS         REF BY
           =====                   =======         ======
           SMPL_Receive            A0C4            main (main_AP)
               calls direct
               CSTACK = 00000000 ( 0000000E )
    -------------------------------------------------------------------------
CODE
  Segment part 7. NOT NEEDED.
           ENTRY                   ADDRESS         REF BY
           =====                   =======         ======
           SMPL_Link               
               calls direct
    -------------------------------------------------------------------------
CODE
  Segment part 6. NOT NEEDED.
           ENTRY                   ADDRESS         REF BY
           =====                   =======         ======
           SMPL_Unlink             
               calls direct
    -------------------------------------------------------------------------
CODE
  Segment part 5. NOT NEEDED.
           ENTRY                   ADDRESS         REF BY
           =====                   =======         ======
           SMPL_Ping               
               calls direct
    -------------------------------------------------------------------------
CODE
  Segment part 4. NOT NEEDED.
           ENTRY                   ADDRESS         REF BY
           =====                   =======         ======
           SMPL_Commission         
               calls direct
    -------------------------------------------------------------------------
<CODE> 1 (was CODE)
  Relative segment, address: 9490 - 9591 (0x102 bytes), align: 1
  Segment part 3.
           ENTRY                   ADDRESS         REF BY
           =====                   =======         ======
           SMPL_Ioctl              9490            main (main_AP)
               calls direct
               CSTACK = 00000000 ( 00000006 )
    -------------------------------------------------------------------------
CSTACK
  Segment part 1. NOT NEEDED.
    -------------------------------------------------------------------------
CODE
  Segment part 13. TENTATIVE. Used definition from ADC10_init
           ENTRY                   ADDRESS         REF BY
           =====                   =======         ======
           ?setjmp_save_r4         
    -------------------------------------------------------------------------
CODE
  Segment part 14. TENTATIVE. Used definition from ADC10_init
           ENTRY                   ADDRESS         REF BY
           =====                   =======         ======
           ?setjmp_save_r5         

    *************************************************************************

  FILE NAME : C:\Users\flb.bwrclt61-1\Desktop\eZ430-RF2500\IARworkspace\ez430-rf2500_wsm\CC2500 Sensor Demo-Access Point\Obj\nwk_frame.r43
  PROGRAM MODULE, NAME : nwk_frame

  SEGMENTS IN THE MODULE
  ======================
DATA16_C
  Relative segment, address: 8000 - 800B (0xc bytes), align: 1
  Segment part 2.             Intra module refs:   dispatchFrame
           LOCAL                   ADDRESS         
           =====                   =======         
           func                    8000 
    -------------------------------------------------------------------------
DATA16_Z
  Relative segment, address: 038E - 038E (0x1 bytes), align: 0
  Segment part 3.             Intra module refs:   nwk_SendEmptyPollRspFrame
                                                   nwk_buildFrame
                                                   nwk_frameInit
           LOCAL                   ADDRESS         
           =====                   =======         
           sTRACTID                038E 
    -------------------------------------------------------------------------
DATA16_Z
  Relative segment, address: 0282 - 0283 (0x2 bytes), align: 1
  Segment part 4.             Intra module refs:   dispatchFrame
                                                   nwk_buildFrame
                                                   nwk_frameInit
           LOCAL                   ADDRESS         
           =====                   =======         
           sMyAddr                 0282 
    -------------------------------------------------------------------------
DATA16_Z
  Relative segment, address: 038F - 038F (0x1 bytes), align: 0
  Segment part 5.             Intra module refs:   nwk_SendEmptyPollRspFrame
                                                   nwk_buildFrame
                                                   nwk_frameInit
                                                   nwk_getMyRxType
           LOCAL                   ADDRESS         
           =====                   =======         
           sMyRxType               038F 
    -------------------------------------------------------------------------
DATA16_Z
  Relative segment, address: 0390 - 0390 (0x1 bytes), align: 0
  Segment part 6.             Intra module refs:   nwk_frameInit
                                                   nwk_sendFrame
           LOCAL                   ADDRESS         
           =====                   =======         
           sMyTxType               0390 
    -------------------------------------------------------------------------
DATA16_Z
  Relative segment, address: 0284 - 0285 (0x2 bytes), align: 1
  Segment part 7.             Intra module refs:   dispatchFrame
                                                   nwk_frameInit
           LOCAL                   ADDRESS         
           =====                   =======         
           spCallback              0284 
    -------------------------------------------------------------------------
<CODE> 1 (was CODE)
  Relative segment, address: A5B2 - A5D5 (0x24 bytes), align: 1
  Segment part 18.
           ENTRY                   ADDRESS         REF BY
           =====                   =======         ======
           nwk_frameInit           A5B2            nwk_nwkInit (nwk)
               calls direct
               CSTACK = 00000000 ( 00000002 )
    -------------------------------------------------------------------------
<CODE> 1 (was CODE)
  Relative segment, address: 9BD0 - 9C57 (0x88 bytes), align: 1
  Segment part 17.
           ENTRY                   ADDRESS         REF BY
           =====                   =======         ======
           nwk_buildFrame          9BD0            nwk_rawSend (nwk_ioctl)
                                                   smpl_send_join_reply (nwk_join)
                                                   smpl_send_link_reply (nwk_link)
                                                   smpl_send_ping_reply (nwk_ping)
                                                   smpl_send_unlink_reply (nwk_link)
               calls direct
               CSTACK = 00000000 ( 0000000C )
    -------------------------------------------------------------------------
<CODE> 1 (was CODE)
  Relative segment, address: A67A - A697 (0x1e bytes), align: 1
  Segment part 16.
           ENTRY                   ADDRESS         REF BY
           =====                   =======         ======
           MRFI_RxCompleteISR      A67A            Mrfi_SyncPinRxIsr (mrfi)
               calls direct
               CSTACK = 00000000 ( 00000004 )
    -------------------------------------------------------------------------
<CODE> 1 (was CODE)
  Relative segment, address: 9854 - 98FD (0xaa bytes), align: 1
  Segment part 15.
           ENTRY                   ADDRESS         REF BY
           =====                   =======         ======
           nwk_retrieveFrame       9854            SMPL_Receive (nwk_api)
                                                   nwk_rawReceive (nwk_ioctl)
               calls direct
               CSTACK = 00000000 ( 00000010 )
    -------------------------------------------------------------------------
<CODE> 1 (was CODE)
  Relative segment, address: 9166 - 9279 (0x114 bytes), align: 1
  Segment part 14.            Intra module refs:   MRFI_RxCompleteISR
           LOCAL                   ADDRESS         
           =====                   =======         
           dispatchFrame           9166 
               calls direct and indirect
               CSTACK = 00000000 ( 0000000A )
    -------------------------------------------------------------------------
<CODE> 1 (was CODE)
  Relative segment, address: A480 - A4AD (0x2e bytes), align: 1
  Segment part 11.            Intra module refs:   nwk_replayFrame
           ENTRY                   ADDRESS         REF BY
           =====                   =======         ======
           nwk_sendFrame           A480            ?Subroutine0 (nwk_link)
                                                   nwk_rawSend (nwk_ioctl)
                                                   send_poll_reply (nwk_mgmt)
                                                   smpl_send_join_reply (nwk_join)
                                                   smpl_send_ping_reply (nwk_ping)
                                                   smpl_send_unlink_reply (nwk_link)
               calls direct
               CSTACK = 00000000 ( 00000004 )
    -------------------------------------------------------------------------
<CODE> 1 (was CODE)
  Relative segment, address: A938 - A93D (0x6 bytes), align: 1
  Segment part 13.
           ENTRY                   ADDRESS         REF BY
           =====                   =======         ======
           nwk_getMyRxType         A938            smpl_send_link_reply (nwk_link)
               CSTACK = 00000000 ( 00000002 )
    -------------------------------------------------------------------------
<CODE> 1 (was CODE)
  Relative segment, address: A388 - A3BB (0x34 bytes), align: 1
  Segment part 12.            Intra module refs:   dispatchFrame
           ENTRY                   ADDRESS         REF BY
           =====                   =======         ======
           nwk_replayFrame         A388 
               calls direct
               CSTACK = 00000000 ( 00000004 )
    -------------------------------------------------------------------------
<CODE> 1 (was CODE)
  Relative segment, address: 9D64 - 9DD7 (0x74 bytes), align: 1
  Segment part 10.
           ENTRY                   ADDRESS         REF BY
           =====                   =======         ======
           nwk_getSandFFrame       9D64            send_poll_reply (nwk_mgmt)
               calls direct
               CSTACK = 00000000 ( 0000000E )
    -------------------------------------------------------------------------
<CODE> 1 (was CODE)
  Relative segment, address: 9B46 - 9BCF (0x8a bytes), align: 1
  Segment part 9.
           ENTRY                   ADDRESS         REF BY
           =====                   =======         ======
           nwk_SendEmptyPollRspFrame
                                   9B46            send_poll_reply (nwk_mgmt)
               calls direct
               CSTACK = 00000000 ( 00000020 )
    -------------------------------------------------------------------------
<CODE> 1 (was CODE)
  Relative segment, address: 9996 - 9A29 (0x94 bytes), align: 1
  Segment part 8.             Intra module refs:   dispatchFrame
           ENTRY                   ADDRESS         REF BY
           =====                   =======         ======
           isDupSandFFrame         9996 
               calls direct and indirect
               CSTACK = 00000000 ( 0000000C )
    -------------------------------------------------------------------------
CSTACK
  Segment part 1. NOT NEEDED.
    -------------------------------------------------------------------------
CODE
  Segment part 19. TENTATIVE. Used definition from ADC10_init
           ENTRY                   ADDRESS         REF BY
           =====                   =======         ======
           ?setjmp_save_r4         
    -------------------------------------------------------------------------
CODE
  Segment part 20. TENTATIVE. Used definition from ADC10_init
           ENTRY                   ADDRESS         REF BY
           =====                   =======         ======
           ?setjmp_save_r5         

    *************************************************************************

  FILE NAME : C:\Users\flb.bwrclt61-1\Desktop\eZ430-RF2500\IARworkspace\ez430-rf2500_wsm\CC2500 Sensor Demo-Access Point\Obj\nwk_freq.r43
  PROGRAM MODULE, NAME : nwk_freq

  SEGMENTS IN THE MODULE
  ======================
<CODE> 1 (was CODE)
  Relative segment, address: A962 - A963 (0x2 bytes), align: 1
  Segment part 3.
           ENTRY                   ADDRESS         REF BY
           =====                   =======         ======
           nwk_freqInit            A962            nwk_nwkInit (nwk)
               CSTACK = 00000000 ( 00000002 )
    -------------------------------------------------------------------------
<CODE> 1 (was CODE)
  Relative segment, address: A946 - A949 (0x4 bytes), align: 1
  Segment part 2.
           ENTRY                   ADDRESS         REF BY
           =====                   =======         ======
           nwk_processFreq         A946            func (nwk_frame)
               CSTACK = 00000000 ( 00000002 )
    -------------------------------------------------------------------------
CSTACK
  Segment part 1. NOT NEEDED.
    -------------------------------------------------------------------------
CODE
  Segment part 4. TENTATIVE. Used definition from ADC10_init
           ENTRY                   ADDRESS         REF BY
           =====                   =======         ======
           ?setjmp_save_r4         
    -------------------------------------------------------------------------
CODE
  Segment part 5. TENTATIVE. Used definition from ADC10_init
           ENTRY                   ADDRESS         REF BY
           =====                   =======         ======
           ?setjmp_save_r5         

    *************************************************************************

  FILE NAME : C:\Users\flb.bwrclt61-1\Desktop\eZ430-RF2500\IARworkspace\ez430-rf2500_wsm\CC2500 Sensor Demo-Access Point\Obj\nwk_globals.r43
  PROGRAM MODULE, NAME : nwk_globals

  SEGMENTS IN THE MODULE
  ======================
DATA16_C
  Relative segment, address: 820A - 820D (0x4 bytes), align: 0
  Segment part 2.             Intra module refs:   nwk_getMyAddress
                                                   nwk_globalsInit
           LOCAL                   ADDRESS         
           =====                   =======         
           sMyROMAddress           820A 
    -------------------------------------------------------------------------
DATA16_Z
  Relative segment, address: 0391 - 0394 (0x4 bytes), align: 0
  Segment part 3.             Intra module refs:   nwk_globalsInit
           LOCAL                   ADDRESS         
           =====                   =======         
           sAPAddress              0391 
    -------------------------------------------------------------------------
DATA16_Z
  Relative segment, address: 0395 - 0398 (0x4 bytes), align: 0
  Segment part 4.             Intra module refs:   ?Subroutine0
                                                   nwk_getMyAddress
           LOCAL                   ADDRESS         
           =====                   =======         
           sMyRAMAddress           0395 
    -------------------------------------------------------------------------
DATA16_Z
  Relative segment, address: 0399 - 0399 (0x1 bytes), align: 0
  Segment part 5.             Intra module refs:   ?Subroutine0
                                                   nwk_getMyAddress
                                                   nwk_globalsInit
                                                   nwk_setMyAddress
           LOCAL                   ADDRESS         
           =====                   =======         
           sRAMAddressIsSet        0399 
    -------------------------------------------------------------------------
DATA16_C
  Relative segment, address: 820E - 8212 (0x5 bytes), align: 0
  Segment part 6.             Intra module refs:   nwk_getFWVersion
           LOCAL                   ADDRESS         
           =====                   =======         
           sVersionInfo            820E 
    -------------------------------------------------------------------------
<CODE> 1 (was CODE)
  Relative segment, address: A65C - A679 (0x1e bytes), align: 1
  Segment part 14.
           ENTRY                   ADDRESS         REF BY
           =====                   =======         ======
           nwk_globalsInit         A65C            nwk_nwkInit (nwk)
               calls direct
               CSTACK = 00000000 ( 00000002 )
    -------------------------------------------------------------------------
<CODE> 1 (was CODE)
  Relative segment, address: A8AA - A8B7 (0xe bytes), align: 1
  Segment part 15.            Intra module refs:   nwk_globalsInit
                                                   nwk_setMyAddress
           LOCAL                   ADDRESS         
           =====                   =======         
           ?Subroutine0            A8AA 
    -------------------------------------------------------------------------
<CODE> 1 (was CODE)
  Relative segment, address: A7C2 - A7D3 (0x12 bytes), align: 1
  Segment part 13.
           ENTRY                   ADDRESS         REF BY
           =====                   =======         ======
           nwk_getMyAddress        A7C2            nwk_deviceAddress (nwk_ioctl)
                                                   nwk_frameInit (nwk_frame)
                                                   nwk_isValidReply (nwk)
                                                   nwk_processMgmt (nwk_mgmt)
               CSTACK = 00000000 ( 00000002 )
    -------------------------------------------------------------------------
<CODE> 1 (was CODE)
  Relative segment, address: A920 - A925 (0x6 bytes), align: 1
  Segment part 12.
           ENTRY                   ADDRESS         REF BY
           =====                   =======         ======
           nwk_getFWVersion        A920            SMPL_Ioctl (nwk_api)
               CSTACK = 00000000 ( 00000002 )
    -------------------------------------------------------------------------
<CODE> 1 (was CODE)
  Relative segment, address: A94A - A94D (0x4 bytes), align: 1
  Segment part 11.
           ENTRY                   ADDRESS         REF BY
           =====                   =======         ======
           nwk_getProtocolVersion
                                   A94A            SMPL_Ioctl (nwk_api)
                                                   smpl_send_join_reply (nwk_join)
                                                   smpl_send_link_reply (nwk_link)
               CSTACK = 00000000 ( 00000002 )
    -------------------------------------------------------------------------
<CODE> 1 (was CODE)
  Relative segment, address: A760 - A775 (0x16 bytes), align: 1
  Segment part 10.
           ENTRY                   ADDRESS         REF BY
           =====                   =======         ======
           nwk_setMyAddress        A760            nwk_deviceAddress (nwk_ioctl)
               calls direct
               CSTACK = 00000000 ( 00000002 )
    -------------------------------------------------------------------------
CODE
  Segment part 9. NOT NEEDED.
           ENTRY                   ADDRESS         REF BY
           =====                   =======         ======
           nwk_setAPAddress        
               calls direct
    -------------------------------------------------------------------------
CODE
  Segment part 8. NOT NEEDED.
           ENTRY                   ADDRESS         REF BY
           =====                   =======         ======
           nwk_getAPAddress        
               calls direct
    -------------------------------------------------------------------------
<CODE> 1 (was CODE)
  Relative segment, address: A932 - A937 (0x6 bytes), align: 1
  Segment part 7.
           ENTRY                   ADDRESS         REF BY
           =====                   =======         ======
           nwk_getBCastAddress     A932            dispatchFrame (nwk_frame)
                                                   nwk_nwkInit (nwk)
               CSTACK = 00000000 ( 00000002 )
    -------------------------------------------------------------------------
CSTACK
  Segment part 1. NOT NEEDED.
    -------------------------------------------------------------------------
CODE
  Segment part 16. TENTATIVE. Used definition from ADC10_init
           ENTRY                   ADDRESS         REF BY
           =====                   =======         ======
           ?setjmp_save_r4         
    -------------------------------------------------------------------------
CODE
  Segment part 17. TENTATIVE. Used definition from ADC10_init
           ENTRY                   ADDRESS         REF BY
           =====                   =======         ======
           ?setjmp_save_r5         

    *************************************************************************

  FILE NAME : C:\Users\flb.bwrclt61-1\Desktop\eZ430-RF2500\IARworkspace\ez430-rf2500_wsm\CC2500 Sensor Demo-Access Point\Obj\nwk_ioctl.r43
  PROGRAM MODULE, NAME : nwk_ioctl

  SEGMENTS IN THE MODULE
  ======================
<CODE> 1 (was CODE)
  Relative segment, address: 8DB4 - 8DE1 (0x2e bytes), align: 1
  Segment part 3.
           ENTRY                   ADDRESS         REF BY
           =====                   =======         ======
           nwk_deviceAddress       8DB4            SMPL_Ioctl (nwk_api)
               calls direct
               CSTACK = 00000000 ( 00000006 )
    -------------------------------------------------------------------------
<CODE> 1 (was CODE)
  Relative segment, address: 8DE2 - 8DE7 (0x6 bytes), align: 1
  Segment part 4.             Intra module refs:   nwk_deviceAddress
                                                   nwk_radioControl
                                                   nwk_rawSend
           LOCAL                   ADDRESS         
           =====                   =======         
           ?Subroutine0            8DE2 
    -------------------------------------------------------------------------
<CODE> 1 (was CODE)
  Relative segment, address: 8DE8 - 8DFB (0x14 bytes), align: 1
  Segment part 5.
           ENTRY                   ADDRESS         REF BY
           =====                   =======         ======
           nwk_joinContext         8DE8            SMPL_Ioctl (nwk_api)
               calls direct
               CSTACK = 00000000 ( 00000002 )
    -------------------------------------------------------------------------
<CODE> 1 (was CODE)
  Relative segment, address: 8DFC - 8E95 (0x9a bytes), align: 1
  Segment part 6.
           ENTRY                   ADDRESS         REF BY
           =====                   =======         ======
           nwk_radioControl        8DFC            SMPL_Ioctl (nwk_api)
               calls direct
               CSTACK = 00000000 ( 00000006 )
    -------------------------------------------------------------------------
<CODE> 1 (was CODE)
  Relative segment, address: 8E96 - 8EC1 (0x2c bytes), align: 1
  Segment part 7.
           ENTRY                   ADDRESS         REF BY
           =====                   =======         ======
           nwk_rawReceive          8E96            SMPL_Ioctl (nwk_api)
               calls direct
               CSTACK = 00000000 ( 00000008 )
    -------------------------------------------------------------------------
<CODE> 1 (was CODE)
  Relative segment, address: 8EC2 - 8F11 (0x50 bytes), align: 1
  Segment part 8.
           ENTRY                   ADDRESS         REF BY
           =====                   =======         ======
           nwk_rawSend             8EC2            SMPL_Ioctl (nwk_api)
               calls direct
               CSTACK = 00000000 ( 00000006 )
    -------------------------------------------------------------------------
<CODE> 1 (was CODE)
  Relative segment, address: A61A - A63B (0x22 bytes), align: 1
  Segment part 2.
           ENTRY                   ADDRESS         REF BY
           =====                   =======         ======
           nwk_connectionControl   A61A            SMPL_Ioctl (nwk_api)
               calls direct
               CSTACK = 00000000 ( 00000002 )
    -------------------------------------------------------------------------
CSTACK
  Segment part 1. NOT NEEDED.
    -------------------------------------------------------------------------
CODE
  Segment part 9. TENTATIVE. Used definition from ADC10_init
           ENTRY                   ADDRESS         REF BY
           =====                   =======         ======
           ?setjmp_save_r4         
    -------------------------------------------------------------------------
CODE
  Segment part 10. TENTATIVE. Used definition from ADC10_init
           ENTRY                   ADDRESS         REF BY
           =====                   =======         ======
           ?setjmp_save_r5         

    *************************************************************************

  FILE NAME : C:\Users\flb.bwrclt61-1\Desktop\eZ430-RF2500\IARworkspace\ez430-rf2500_wsm\CC2500 Sensor Demo-Access Point\Obj\nwk_join.r43
  PROGRAM MODULE, NAME : nwk_join

  SEGMENTS IN THE MODULE
  ======================
DATA16_Z
  Relative segment, address: 0286 - 0289 (0x4 bytes), align: 1
  Segment part 2.             Intra module refs:   nwk_getJoinToken
                                                   nwk_joinInit
                                                   nwk_setJoinToken
                                                   smpl_send_join_reply
           LOCAL                   ADDRESS         
           =====                   =======         
           sJoinToken              0286 
    -------------------------------------------------------------------------
DATA16_Z
  Relative segment, address: 028A - 028B (0x2 bytes), align: 1
  Segment part 3.             Intra module refs:   nwk_joinInit
                                                   smpl_send_join_reply
           LOCAL                   ADDRESS         
           =====                   =======         
           spCallback              028A 
    -------------------------------------------------------------------------
DATA16_Z
  Relative segment, address: 039A - 039A (0x1 bytes), align: 0
  Segment part 4.             Intra module refs:   nwk_joinInit
                                                   nwk_processJoin
           LOCAL                   ADDRESS         
           =====                   =======         
           sTid                    039A 
    -------------------------------------------------------------------------
DATA16_Z
  Relative segment, address: 028C - 028D (0x2 bytes), align: 1
  Segment part 5.             Intra module refs:   nwk_isSandFClient
                                                   nwk_joinInit
                                                   smpl_send_join_reply
           LOCAL                   ADDRESS         
           =====                   =======         
           spSandFContext          028C 
    -------------------------------------------------------------------------
DATA16_Z
  Relative segment, address: 039B - 039B (0x1 bytes), align: 0
  Segment part 6.             Intra module refs:   nwk_joinInit
                                                   nwk_processJoin
                                                   nwk_setJoinContext
           LOCAL                   ADDRESS         
           =====                   =======         
           sJoinOK                 039B 
    -------------------------------------------------------------------------
<CODE> 1 (was CODE)
  Relative segment, address: A1C8 - A205 (0x3e bytes), align: 1
  Segment part 14.
           ENTRY                   ADDRESS         REF BY
           =====                   =======         ======
           nwk_joinInit            A1C8            nwk_nwkInit (nwk)
               calls direct
               CSTACK = 00000000 ( 00000002 )
    -------------------------------------------------------------------------
<CODE> 1 (was CODE)
  Relative segment, address: A7F8 - A809 (0x12 bytes), align: 1
  Segment part 13.
           ENTRY                   ADDRESS         REF BY
           =====                   =======         ======
           nwk_setJoinToken        A7F8            SMPL_Ioctl (nwk_api)
               CSTACK = 00000000 ( 00000002 )
    -------------------------------------------------------------------------
<CODE> 1 (was CODE)
  Relative segment, address: A7E6 - A7F7 (0x12 bytes), align: 1
  Segment part 12.
           ENTRY                   ADDRESS         REF BY
           =====                   =======         ======
           nwk_getJoinToken        A7E6            SMPL_Ioctl (nwk_api)
               CSTACK = 00000000 ( 00000002 )
    -------------------------------------------------------------------------
<CODE> 1 (was CODE)
  Relative segment, address: 938A - 948F (0x106 bytes), align: 1
  Segment part 11.            Intra module refs:   nwk_processJoin
           LOCAL                   ADDRESS         
           =====                   =======         
           smpl_send_join_reply    938A 
               calls direct and indirect
               CSTACK = 00000000 ( 00000014 )
    -------------------------------------------------------------------------
<CODE> 1 (was CODE)
  Relative segment, address: A94E - A951 (0x4 bytes), align: 1
  Segment part 10.
           ENTRY                   ADDRESS         REF BY
           =====                   =======         ======
           nwk_join                A94E            SMPL_Init (nwk_api)
               CSTACK = 00000000 ( 00000002 )
    -------------------------------------------------------------------------
<CODE> 1 (was CODE)
  Relative segment, address: A14A - A189 (0x40 bytes), align: 1
  Segment part 9.             Intra module refs:   smpl_send_join_reply
           ENTRY                   ADDRESS         REF BY
           =====                   =======         ======
           nwk_isSandFClient       A14A            dispatchFrame (nwk_frame)
                                                   send_poll_reply (nwk_mgmt)
               calls direct
               CSTACK = 00000000 ( 0000000C )
    -------------------------------------------------------------------------
<CODE> 1 (was CODE)
  Relative segment, address: A85E - A86D (0x10 bytes), align: 1
  Segment part 8.
           ENTRY                   ADDRESS         REF BY
           =====                   =======         ======
           nwk_setJoinContext      A85E            nwk_joinContext (nwk_ioctl)
               CSTACK = 00000000 ( 00000002 )
    -------------------------------------------------------------------------
<CODE> 1 (was CODE)
  Relative segment, address: 9EA2 - 9EF9 (0x58 bytes), align: 1
  Segment part 7.
           ENTRY                   ADDRESS         REF BY
           =====                   =======         ======
           nwk_processJoin         9EA2            func (nwk_frame)
               calls direct
               CSTACK = 00000000 ( 00000006 )
    -------------------------------------------------------------------------
CSTACK
  Segment part 1. NOT NEEDED.
    -------------------------------------------------------------------------
CODE
  Segment part 15. TENTATIVE. Used definition from ADC10_init
           ENTRY                   ADDRESS         REF BY
           =====                   =======         ======
           ?setjmp_save_r4         
    -------------------------------------------------------------------------
CODE
  Segment part 16. TENTATIVE. Used definition from ADC10_init
           ENTRY                   ADDRESS         REF BY
           =====                   =======         ======
           ?setjmp_save_r5         

    *************************************************************************

  FILE NAME : C:\Users\flb.bwrclt61-1\Desktop\eZ430-RF2500\IARworkspace\ez430-rf2500_wsm\CC2500 Sensor Demo-Access Point\Obj\nwk_link.r43
  PROGRAM MODULE, NAME : nwk_link

  SEGMENTS IN THE MODULE
  ======================
DATA16_Z
  Relative segment, address: 028E - 0291 (0x4 bytes), align: 1
  Segment part 2.             Intra module refs:   nwk_getLinkToken
                                                   nwk_linkInit
                                                   nwk_setLinkToken
                                                   smpl_send_link_reply
           LOCAL                   ADDRESS         
           =====                   =======         
           sLinkToken              028E 
    -------------------------------------------------------------------------
DATA16_Z
  Relative segment, address: 039C - 039C (0x1 bytes), align: 0
  Segment part 3.             Intra module refs:   handleLinkRequest
                                                   nwk_setListenContext
                                                   smpl_send_link_reply
           LOCAL                   ADDRESS         
           =====                   =======         
           sListenActive           039C 
    -------------------------------------------------------------------------
DATA16_Z
  Relative segment, address: 039D - 03A4 (0x8 bytes), align: 0
  Segment part 4.             Intra module refs:   nwk_getLocalLinkID
                                                   nwk_linkInit
                                                   smpl_send_link_reply
           LOCAL                   ADDRESS         
           =====                   =======         
           sServiceLinkID          039D 
    -------------------------------------------------------------------------
DATA16_Z
  Relative segment, address: 03A5 - 03A5 (0x1 bytes), align: 0
  Segment part 5.             Intra module refs:   nwk_getLocalLinkID
                                                   smpl_send_link_reply
           LOCAL                   ADDRESS         
           =====                   =======         
           sNumLinkers             03A5 
    -------------------------------------------------------------------------
DATA16_Z
  Relative segment, address: 03A6 - 03A6 (0x1 bytes), align: 0
  Segment part 6.             Intra module refs:   nwk_linkInit
                                                   nwk_processLink
           LOCAL                   ADDRESS         
           =====                   =======         
           sTid                    03A6 
    -------------------------------------------------------------------------
<CODE> 1 (was CODE)
  Relative segment, address: A420 - A44F (0x30 bytes), align: 1
  Segment part 25.
           ENTRY                   ADDRESS         REF BY
           =====                   =======         ======
           nwk_linkInit            A420            nwk_nwkInit (nwk)
               calls direct
               CSTACK = 00000000 ( 00000002 )
    -------------------------------------------------------------------------
<CODE> 1 (was CODE)
  Relative segment, address: A7D4 - A7E5 (0x12 bytes), align: 1
  Segment part 24.
           ENTRY                   ADDRESS         REF BY
           =====                   =======         ======
           nwk_setLinkToken        A7D4            SMPL_Ioctl (nwk_api)
                                                   nwk_joinInit (nwk_join)
               CSTACK = 00000000 ( 00000002 )
    -------------------------------------------------------------------------
<CODE> 1 (was CODE)
  Relative segment, address: A81C - A82D (0x12 bytes), align: 1
  Segment part 23.
           ENTRY                   ADDRESS         REF BY
           =====                   =======         ======
           nwk_getLinkToken        A81C            SMPL_Ioctl (nwk_api)
                                                   smpl_send_join_reply (nwk_join)
               CSTACK = 00000000 ( 00000002 )
    -------------------------------------------------------------------------
CODE
  Segment part 18. NOT NEEDED.
           ENTRY                   ADDRESS         REF BY
           =====                   =======         ======
           nwk_unlink              
               calls direct
    -------------------------------------------------------------------------
CODE
  Segment part 19. NOT NEEDED.
    -------------------------------------------------------------------------
CODE
  Segment part 20. NOT NEEDED.
    -------------------------------------------------------------------------
CODE
  Segment part 21. NOT NEEDED.
    -------------------------------------------------------------------------
CODE
  Segment part 22. NOT NEEDED.
    -------------------------------------------------------------------------
CODE
  Segment part 17. NOT NEEDED.
           ENTRY                   ADDRESS         REF BY
           =====                   =======         ======
           nwk_link                
               calls direct
    -------------------------------------------------------------------------
<CODE> 1 (was CODE)
  Relative segment, address: 9E46 - 9EA1 (0x5c bytes), align: 1
  Segment part 7.             Intra module refs:   handleLinkRequest
           LOCAL                   ADDRESS         
           =====                   =======         
           smpl_send_unlink_reply
                                   9E46 
               calls direct
               CSTACK = 00000000 ( 0000000A )
    -------------------------------------------------------------------------
<CODE> 1 (was CODE)
  Relative segment, address: A8C6 - A8D3 (0xe bytes), align: 1
  Segment part 12.            Intra module refs:   ?Subroutine0
                                                   smpl_send_unlink_reply
           LOCAL                   ADDRESS         
           =====                   =======         
           ?Subroutine6            A8C6 
    -------------------------------------------------------------------------
<CODE> 1 (was CODE)
  Relative segment, address: 903E - 9165 (0x128 bytes), align: 1
  Segment part 8.             Intra module refs:   handleLinkRequest
           LOCAL                   ADDRESS         
           =====                   =======         
           smpl_send_link_reply    903E 
               calls direct
               CSTACK = 00000000 ( 00000012 )
    -------------------------------------------------------------------------
<CODE> 1 (was CODE)
  Relative segment, address: A88E - A89B (0xe bytes), align: 1
  Segment part 9.             Intra module refs:   smpl_send_link_reply
           LOCAL                   ADDRESS         
           =====                   =======         
           ?Subroutine5            A88E 
    -------------------------------------------------------------------------
<CODE> 1 (was CODE)
  Relative segment, address: A78C - A79D (0x12 bytes), align: 1
  Segment part 10.            Intra module refs:   smpl_send_link_reply
           LOCAL                   ADDRESS         
           =====                   =======         
           ?Subroutine1            A78C 
    -------------------------------------------------------------------------
<CODE> 1 (was CODE)
  Relative segment, address: A8D4 - A8DF (0xc bytes), align: 1
  Segment part 11.            Intra module refs:   smpl_send_link_reply
           LOCAL                   ADDRESS         
           =====                   =======         
           ?Subroutine0            A8D4 
    -------------------------------------------------------------------------
<CODE> 1 (was CODE)
  Relative segment, address: A4AE - A4DB (0x2e bytes), align: 1
  Segment part 16.
           ENTRY                   ADDRESS         REF BY
           =====                   =======         ======
           nwk_processLink         A4AE            func (nwk_frame)
               calls direct
               CSTACK = 00000000 ( 00000004 )
    -------------------------------------------------------------------------
<CODE> 1 (was CODE)
  Relative segment, address: A354 - A387 (0x34 bytes), align: 1
  Segment part 15.
           ENTRY                   ADDRESS         REF BY
           =====                   =======         ======
           nwk_getLocalLinkID      A354            SMPL_LinkListen (nwk_api)
               calls direct
               CSTACK = 00000000 ( 00000002 )
    -------------------------------------------------------------------------
<CODE> 1 (was CODE)
  Relative segment, address: A86E - A87D (0x10 bytes), align: 1
  Segment part 14.            Intra module refs:   nwk_getLocalLinkID
           ENTRY                   ADDRESS         REF BY
           =====                   =======         ======
           nwk_setListenContext    A86E            SMPL_LinkListen (nwk_api)
               CSTACK = 00000000 ( 00000002 )
    -------------------------------------------------------------------------
<CODE> 1 (was CODE)
  Relative segment, address: A18A - A1C7 (0x3e bytes), align: 1
  Segment part 13.            Intra module refs:   nwk_processLink
           LOCAL                   ADDRESS         
           =====                   =======         
           handleLinkRequest       A18A 
               calls direct
               CSTACK = 00000000 ( 00000004 )
    -------------------------------------------------------------------------
CSTACK
  Segment part 1. NOT NEEDED.
    -------------------------------------------------------------------------
CODE
  Segment part 26. TENTATIVE. Used definition from ADC10_init
           ENTRY                   ADDRESS         REF BY
           =====                   =======         ======
           ?setjmp_save_r4         
    -------------------------------------------------------------------------
CODE
  Segment part 27. TENTATIVE. Used definition from ADC10_init
           ENTRY                   ADDRESS         REF BY
           =====                   =======         ======
           ?setjmp_save_r5         

    *************************************************************************

  FILE NAME : C:\Users\flb.bwrclt61-1\Desktop\eZ430-RF2500\IARworkspace\ez430-rf2500_wsm\CC2500 Sensor Demo-Access Point\Obj\nwk_mgmt.r43
  PROGRAM MODULE, NAME : nwk_mgmt

  SEGMENTS IN THE MODULE
  ======================
DATA16_Z
  Relative segment, address: 03A7 - 03A9 (0x3 bytes), align: 0
  Segment part 2.             Intra module refs:   nwk_mgmtInit
                                                   nwk_resetSFMarker
                                                   send_poll_reply
           LOCAL                   ADDRESS         
           =====                   =======         
           sSFMarker               03A7 
    -------------------------------------------------------------------------
DATA16_Z
  Relative segment, address: 03AA - 03AA (0x1 bytes), align: 0
  Segment part 3.             Intra module refs:   nwk_mgmtInit
                                                   nwk_processMgmt
           LOCAL                   ADDRESS         
           =====                   =======         
           sTid                    03AA 
    -------------------------------------------------------------------------
<CODE> 1 (was CODE)
  Relative segment, address: A776 - A78B (0x16 bytes), align: 1
  Segment part 7.
           ENTRY                   ADDRESS         REF BY
           =====                   =======         ======
           nwk_mgmtInit            A776            nwk_nwkInit (nwk)
               calls direct
               CSTACK = 00000000 ( 00000002 )
    -------------------------------------------------------------------------
<CODE> 1 (was CODE)
  Relative segment, address: A034 - A07D (0x4a bytes), align: 1
  Segment part 6.
           ENTRY                   ADDRESS         REF BY
           =====                   =======         ======
           nwk_processMgmt         A034            func (nwk_frame)
               calls direct
               CSTACK = 00000000 ( 00000004 )
    -------------------------------------------------------------------------
<CODE> 1 (was CODE)
  Relative segment, address: 9CDE - 9D63 (0x86 bytes), align: 1
  Segment part 5.             Intra module refs:   nwk_processMgmt
           LOCAL                   ADDRESS         
           =====                   =======         
           send_poll_reply         9CDE 
               calls direct
               CSTACK = 00000000 ( 0000000A )
    -------------------------------------------------------------------------
<CODE> 1 (was CODE)
  Relative segment, address: A918 - A91F (0x8 bytes), align: 1
  Segment part 4.
           ENTRY                   ADDRESS         REF BY
           =====                   =======         ======
           nwk_resetSFMarker       A918            smpl_send_join_reply (nwk_join)
               CSTACK = 00000000 ( 00000002 )
    -------------------------------------------------------------------------
CSTACK
  Segment part 1. NOT NEEDED.
    -------------------------------------------------------------------------
CODE
  Segment part 8. TENTATIVE. Used definition from ADC10_init
           ENTRY                   ADDRESS         REF BY
           =====                   =======         ======
           ?setjmp_save_r4         
    -------------------------------------------------------------------------
CODE
  Segment part 9. TENTATIVE. Used definition from ADC10_init
           ENTRY                   ADDRESS         REF BY
           =====                   =======         ======
           ?setjmp_save_r5         

    *************************************************************************

  FILE NAME : C:\Users\flb.bwrclt61-1\Desktop\eZ430-RF2500\IARworkspace\ez430-rf2500_wsm\CC2500 Sensor Demo-Access Point\Obj\nwk_ping.r43
  PROGRAM MODULE, NAME : nwk_ping

  SEGMENTS IN THE MODULE
  ======================
DATA16_Z
  Relative segment, address: 03AB - 03AB (0x1 bytes), align: 0
  Segment part 2.             Intra module refs:   nwk_pingInit
                                                   nwk_processPing
           LOCAL                   ADDRESS         
           =====                   =======         
           sTid                    03AB 
    -------------------------------------------------------------------------
<CODE> 1 (was CODE)
  Relative segment, address: A8EA - A8F3 (0xa bytes), align: 1
  Segment part 6.
           ENTRY                   ADDRESS         REF BY
           =====                   =======         ======
           nwk_pingInit            A8EA            nwk_nwkInit (nwk)
               calls direct
               CSTACK = 00000000 ( 00000002 )
    -------------------------------------------------------------------------
CODE
  Segment part 5. NOT NEEDED.
           ENTRY                   ADDRESS         REF BY
           =====                   =======         ======
           nwk_ping                
               calls direct
    -------------------------------------------------------------------------
<CODE> 1 (was CODE)
  Relative segment, address: A07E - A0C3 (0x46 bytes), align: 1
  Segment part 4.             Intra module refs:   nwk_processPing
           LOCAL                   ADDRESS         
           =====                   =======         
           smpl_send_ping_reply    A07E 
               calls direct
               CSTACK = 00000000 ( 00000006 )
    -------------------------------------------------------------------------
<CODE> 1 (was CODE)
  Relative segment, address: A2B4 - A2E9 (0x36 bytes), align: 1
  Segment part 3.
           ENTRY                   ADDRESS         REF BY
           =====                   =======         ======
           nwk_processPing         A2B4            func (nwk_frame)
               calls direct
               CSTACK = 00000000 ( 00000004 )
    -------------------------------------------------------------------------
CSTACK
  Segment part 1. NOT NEEDED.
    -------------------------------------------------------------------------
CODE
  Segment part 7. TENTATIVE. Used definition from ADC10_init
           ENTRY                   ADDRESS         REF BY
           =====                   =======         ======
           ?setjmp_save_r4         
    -------------------------------------------------------------------------
CODE
  Segment part 8. TENTATIVE. Used definition from ADC10_init
           ENTRY                   ADDRESS         REF BY
           =====                   =======         ======
           ?setjmp_save_r5         

    *************************************************************************

  FILE NAME : C:\Users\flb.bwrclt61-1\Desktop\eZ430-RF2500\IARworkspace\ez430-rf2500_wsm\CC2500 Sensor Demo-Access Point\Obj\nwk_security.r43
  PROGRAM MODULE, NAME : nwk_security

  SEGMENTS IN THE MODULE
  ======================
<CODE> 1 (was CODE)
  Relative segment, address: A960 - A961 (0x2 bytes), align: 1
  Segment part 3.
           ENTRY                   ADDRESS         REF BY
           =====                   =======         ======
           nwk_securityInit        A960            nwk_nwkInit (nwk)
               CSTACK = 00000000 ( 00000002 )
    -------------------------------------------------------------------------
<CODE> 1 (was CODE)
  Relative segment, address: A95A - A95D (0x4 bytes), align: 1
  Segment part 2.
           ENTRY                   ADDRESS         REF BY
           =====                   =======         ======
           nwk_processSecurity     A95A            func (nwk_frame)
               CSTACK = 00000000 ( 00000002 )
    -------------------------------------------------------------------------
CSTACK
  Segment part 1. NOT NEEDED.
    -------------------------------------------------------------------------
CODE
  Segment part 4. TENTATIVE. Used definition from ADC10_init
           ENTRY                   ADDRESS         REF BY
           =====                   =======         ======
           ?setjmp_save_r4         
    -------------------------------------------------------------------------
CODE
  Segment part 5. TENTATIVE. Used definition from ADC10_init
           ENTRY                   ADDRESS         REF BY
           =====                   =======         ======
           ?setjmp_save_r5         

    *************************************************************************

  FILE NAME : C:\Users\flb.bwrclt61-1\Desktop\eZ430-RF2500\IARworkspace\ez430-rf2500_wsm\CC2500 Sensor Demo-Access Point\Obj\virtual_com_cmds.r43
  PROGRAM MODULE, NAME : virtual_com_cmds

  SEGMENTS IN THE MODULE
  ======================
DATA16_AN
  Relative segment, address: 0001 - 0001 (0x1 bytes), align: 0
  Segment part 1. ROOT.       Intra module refs:   COM_Init
           ENTRY                   ADDRESS         REF BY
           =====                   =======         ======
           IE2                     0001 
    -------------------------------------------------------------------------
DATA16_AN
  Segment part 2. TENTATIVE. Used definition from mrfi
           ENTRY                   ADDRESS         REF BY
           =====                   =======         ======
           IFG2                    
    -------------------------------------------------------------------------
DATA16_AN
  Segment part 3. TENTATIVE. Used definition from mrfi
           ENTRY                   ADDRESS         REF BY
           =====                   =======         ======
           P3SEL                   
    -------------------------------------------------------------------------
DATA16_AN
  Relative segment, address: 0061 - 0061 (0x1 bytes), align: 0
  Segment part 4. ROOT.       Intra module refs:   COM_Init
           ENTRY                   ADDRESS         REF BY
           =====                   =======         ======
           UCA0CTL1                0061 
    -------------------------------------------------------------------------
DATA16_AN
  Relative segment, address: 0062 - 0062 (0x1 bytes), align: 0
  Segment part 5. ROOT.       Intra module refs:   COM_Init
           ENTRY                   ADDRESS         REF BY
           =====                   =======         ======
           UCA0BR0                 0062 
    -------------------------------------------------------------------------
DATA16_AN
  Relative segment, address: 0063 - 0063 (0x1 bytes), align: 0
  Segment part 6. ROOT.       Intra module refs:   COM_Init
           ENTRY                   ADDRESS         REF BY
           =====                   =======         ======
           UCA0BR1                 0063 
    -------------------------------------------------------------------------
DATA16_AN
  Relative segment, address: 0064 - 0064 (0x1 bytes), align: 0
  Segment part 7. ROOT.       Intra module refs:   COM_Init
           ENTRY                   ADDRESS         REF BY
           =====                   =======         ======
           UCA0MCTL                0064 
    -------------------------------------------------------------------------
DATA16_AN
  Relative segment, address: 0066 - 0066 (0x1 bytes), align: 0
  Segment part 8. ROOT.       Intra module refs:   USCI0RX_ISR
           ENTRY                   ADDRESS         REF BY
           =====                   =======         ======
           UCA0RXBUF               0066 
    -------------------------------------------------------------------------
DATA16_AN
  Relative segment, address: 0067 - 0067 (0x1 bytes), align: 0
  Segment part 9. ROOT.       Intra module refs:   TXString
           ENTRY                   ADDRESS         REF BY
           =====                   =======         ======
           UCA0TXBUF               0067 
    -------------------------------------------------------------------------
DATA16_Z
  Relative segment, address: 03AC - 03AC (0x1 bytes), align: 0
  Segment part 15.            Intra module refs:   USCI0RX_ISR
                                                   transmitDataString
           LOCAL                   ADDRESS         
           =====                   =======         
           verboseMode             03AC 
    -------------------------------------------------------------------------
DATA16_Z
  Relative segment, address: 03AD - 03AD (0x1 bytes), align: 0
  Segment part 16.            Intra module refs:   USCI0RX_ISR
                                                   transmitData
                                                   transmitDataString
           LOCAL                   ADDRESS         
           =====                   =======         
           degCMode                03AD 
    -------------------------------------------------------------------------
<CODE> 1 (was CODE)
  Relative segment, address: A562 - A589 (0x28 bytes), align: 1
  Segment part 27.
           ENTRY                   ADDRESS         REF BY
           =====                   =======         ======
           COM_Init                A562            main (main_AP)
               CSTACK = 00000000 ( 00000002 )
    -------------------------------------------------------------------------
<CODE> 1 (was CODE)
  Relative segment, address: A6D0 - A6E9 (0x1a bytes), align: 1
  Segment part 18.            Intra module refs:   transmitDataString
           ENTRY                   ADDRESS         REF BY
           =====                   =======         ======
           TXString                A6D0            main (main_AP)
               CSTACK = 00000000 ( 00000002 )
    -------------------------------------------------------------------------
<CODE> 1 (was CODE)
  Relative segment, address: 8BC8 - 8DB3 (0x1ec bytes), align: 1
  Segment part 19.            Intra module refs:   transmitData
           ENTRY                   ADDRESS         REF BY
           =====                   =======         ======
           transmitDataString      8BC8            main (main_AP)
               calls direct
               CSTACK = 00000000 ( 0000007A )
    -------------------------------------------------------------------------
<CODE> 1 (was CODE)
  Relative segment, address: A89C - A8A9 (0xe bytes), align: 1
  Segment part 20.            Intra module refs:   transmitDataString
           LOCAL                   ADDRESS         
           =====                   =======         
           ?Subroutine2            A89C 
    -------------------------------------------------------------------------
<CODE> 1 (was CODE)
  Relative segment, address: A910 - A917 (0x8 bytes), align: 1
  Segment part 21.            Intra module refs:   ?Subroutine2
                                                   transmitDataString
           LOCAL                   ADDRESS         
           =====                   =======         
           ?Subroutine3            A910 
    -------------------------------------------------------------------------
<CODE> 1 (was CODE)
  Relative segment, address: A8FE - A907 (0xa bytes), align: 1
  Segment part 22.            Intra module refs:   transmitDataString
           LOCAL                   ADDRESS         
           =====                   =======         
           ?Subroutine1            A8FE 
    -------------------------------------------------------------------------
<CODE> 1 (was CODE)
  Relative segment, address: 98FE - 9995 (0x98 bytes), align: 1
  Segment part 23.
           ENTRY                   ADDRESS         REF BY
           =====                   =======         ======
           transmitData            98FE            main (main_AP)
               calls direct
               CSTACK = 00000000 ( 00000016 )
    -------------------------------------------------------------------------
<CODE> 1 (was CODE)
  Relative segment, address: A82E - A82F (0x2 bytes), align: 1
  Segment part 24.            Intra module refs:   transmitData
           LOCAL                   ADDRESS         
           =====                   =======         
           ?Subroutine0            A82E 
    -------------------------------------------------------------------------
<CODE> 1 (was CODE)
  Relative segment, address: A830 - A833 (0x4 bytes), align: 1
  Segment part 25.            Intra module refs:   ?Subroutine0
                                                   transmitData
    -------------------------------------------------------------------------
<CODE> 1 (was CODE)
  Relative segment, address: A834 - A83D (0xa bytes), align: 1
  Segment part 26.            Intra module refs:   ?Subroutine0
                                                   Segment part 25
                                                   transmitData
           LOCAL                   ADDRESS         
           =====                   =======         
           ?Subroutine4            A834 
    -------------------------------------------------------------------------
<CODE> 1 (was CODE)
  Relative segment, address: 9F4C - 9F9B (0x50 bytes), align: 1
  Segment part 17.            Intra module refs:   USCI0RX_ISR::??INTVEC 14
           ENTRY                   ADDRESS         REF BY
           =====                   =======         ======
           USCI0RX_ISR             9F4C 
               interrupt function
               CSTACK = 00000000 ( 00000006 )
    -------------------------------------------------------------------------
INTVEC
  Common segment, address: FFE0 - FFEF (0x10 bytes), align: 1
  Segment part 10. ROOT.
           ENTRY                   ADDRESS         REF BY
           =====                   =======         ======
           USCI0RX_ISR::??INTVEC 14
                                   FFEE 
    -------------------------------------------------------------------------
CSTACK
  Segment part 11. NOT NEEDED.
    -------------------------------------------------------------------------
CODE
  Segment part 28. TENTATIVE. Used definition from ADC10_init
           ENTRY                   ADDRESS         REF BY
           =====                   =======         ======
           ?setjmp_save_r4         
    -------------------------------------------------------------------------
CODE
  Segment part 29. TENTATIVE. Used definition from ADC10_init
           ENTRY                   ADDRESS         REF BY
           =====                   =======         ======
           ?setjmp_save_r5         
    -------------------------------------------------------------------------
DATA16_C
  Relative segment, address: 8213 - 8219 (0x7 bytes), align: 0
  Segment part 12.            Intra module refs:   transmitDataString
    -------------------------------------------------------------------------
DATA16_C
  Relative segment, address: 821A - 825C (0x43 bytes), align: 0
  Segment part 13.            Intra module refs:   transmitDataString
    -------------------------------------------------------------------------
DATA16_C
  Relative segment, address: 825D - 8278 (0x1c bytes), align: 0
  Segment part 14.            Intra module refs:   transmitDataString

    *************************************************************************

  FILE NAME : C:\Program Files\IAR Systems\Embedded Workbench 6.0 Kickstart\430\LIB\CLIB\cl430f.r43
  LIBRARY MODULE, NAME : ?_exit

  SEGMENTS IN THE MODULE
  ======================
<CODE> 1 (was CODE)
  Relative segment, address: A952, align: 1
  Segment part 0.
           ENTRY                   ADDRESS         REF BY
           =====                   =======         ======
           _exit                   A952            exit (?clibexit)
    -------------------------------------------------------------------------
CODE
  Segment part 1. NOT NEEDED.
    -------------------------------------------------------------------------
CODE
  Segment part 2. NOT NEEDED.
           ENTRY                   ADDRESS         REF BY
           =====                   =======         ======
           __cstart_call_dtors     
    -------------------------------------------------------------------------
CODE
  Segment part 3. NOT NEEDED.
           ENTRY                   ADDRESS         REF BY
           =====                   =======         ======
           __cstart_closeall       
    -------------------------------------------------------------------------
CODE
  Segment part 4. NOT NEEDED.
           ENTRY                   ADDRESS         REF BY
           =====                   =======         ======
           __cstart_clearlocks     
    -------------------------------------------------------------------------
CODE
  Segment part 5. NOT NEEDED.
    -------------------------------------------------------------------------
<CODE> 1 (was CODE)
  Relative segment, address: A952 - A955 (0x4 bytes), align: 1
  Segment part 6.             Intra module refs:   _exit

    -------------------------------------------------------------------------
  LIBRARY MODULE, NAME : ?clibexit

  SEGMENTS IN THE MODULE
  ======================
<CODE> 1 (was CODE)
  Relative segment, address: A956 - A959 (0x4 bytes), align: 1
  Segment part 2.
           ENTRY                   ADDRESS         REF BY
           =====                   =======         ======
           exit                    A956            Segment part 17 (?cstart)
               calls direct
               CSTACK = 00000000 ( 00000002 )
    -------------------------------------------------------------------------
CSTACK
  Segment part 1. NOT NEEDED.

    -------------------------------------------------------------------------
  LIBRARY MODULE, NAME : ?clibstubs

  SEGMENTS IN THE MODULE
  ======================
CODE
  Segment part 4. NOT NEEDED.
           ENTRY                   ADDRESS         REF BY
           =====                   =======         ======
           __call_ctors            
    -------------------------------------------------------------------------
CODE
  Segment part 3. NOT NEEDED.
           ENTRY                   ADDRESS         REF BY
           =====                   =======         ======
           __call_dtors            
    -------------------------------------------------------------------------
CODE
  Segment part 2. NOT NEEDED.
           ENTRY                   ADDRESS         REF BY
           =====                   =======         ======
           _Close_all              
    -------------------------------------------------------------------------
CSTACK
  Segment part 1. NOT NEEDED.

    -------------------------------------------------------------------------
  LIBRARY MODULE, NAME : ?__exit

  SEGMENTS IN THE MODULE
  ======================
<CODE> 1 (was CODE)
  Relative segment, address: A95E - A95F (0x2 bytes), align: 1
  Segment part 0.
           ENTRY                   ADDRESS         REF BY
           =====                   =======         ======
           __exit                  A95E            Segment part 6 (?_exit)
                                                   _exit (?_exit)
           ?C_EXIT                 A95E 

    -------------------------------------------------------------------------
  LIBRARY MODULE, NAME : ?cstart

  SEGMENTS IN THE MODULE
  ======================
HEAP
  Segment part 0. NOT NEEDED.
    -------------------------------------------------------------------------
CSTACK
  Relative segment, address: 0538, align: 1
  Segment part 1.
    -------------------------------------------------------------------------
DATA16_Z
  Relative segment, address: 0292, align: 1
  Segment part 2.
    -------------------------------------------------------------------------
DATA16_I
  Relative segment, address: 0202, align: 1
  Segment part 3.
    -------------------------------------------------------------------------
DATA16_ID
  Relative segment, address: 827C, align: 1
  Segment part 4.
    -------------------------------------------------------------------------
CODE_I
  Segment part 5. NOT NEEDED.
    -------------------------------------------------------------------------
CODE_ID
  Segment part 6. NOT NEEDED.
    -------------------------------------------------------------------------
TLS16_I
  Segment part 7. NOT NEEDED.
    -------------------------------------------------------------------------
TLS16_ID
  Segment part 8. NOT NEEDED.
    -------------------------------------------------------------------------
CSTART
  Relative segment, address: 82F8 - 82FB (0x4 bytes), align: 1
  Segment part 9.
           ENTRY                   ADDRESS         REF BY
           =====                   =======         ======
           __program_start         82F8            ?reset_vector (?reset_vector)
                                                   Absolute parts (?ABS_ENTRY_MOD)
           ?cstart_begin           82F8 
    -------------------------------------------------------------------------
CSTART
  Relative segment, address: 82FC - 8303 (0x8 bytes), align: 1
  Segment part 10.
           ENTRY                   ADDRESS         REF BY
           =====                   =======         ======
           ?cstart_call_low_level_init
                                   82FC            __low_level_init (bsp)
    -------------------------------------------------------------------------
CSTART
  Segment part 11. NOT NEEDED.
           ENTRY                   ADDRESS         REF BY
           =====                   =======         ======
           ?cstart_init_copy_ramfunc
                                   
    -------------------------------------------------------------------------
CSTART
  Relative segment, address: 8304 - 830F (0xc bytes), align: 1
  Segment part 12.
           ENTRY                   ADDRESS         REF BY
           =====                   =======         ======
           ?cstart_init_zero       8304            degCMode (virtual_com_cmds)
                                                   mrfiIncomingPacket (mrfi)
                                                   mrfiRadioState (mrfi)
                                                   mrfiRndSeed (mrfi)
                                                   mrfiRxFilterEnabled (mrfi)
                                                   sAPAddress (nwk_globals)
                                                   sBackoffHelper (mrfi)
                                                   sBlinky (main_AP)
                                                   sInFrameQ (nwk_QMgmt)
                                                   sInit_done (nwk_api)
                                                   sIterationsPerUsec (bsp)
                                                   sJoinOK (nwk_join)
                                                   sJoinSem (main_AP)
                                                   sJoinToken (nwk_join)
                                                   sKillSem (mrfi)
                                                   sLID (main_AP)
                                                   sLinkToken (nwk_link)
                                                   sListenActive (nwk_link)
                                                   sMyAddr (nwk_frame)
                                                   sMyRAMAddress (nwk_globals)
                                                   sMyRxType (nwk_frame)
                                                   sMyTxType (nwk_frame)
                                                   sNumCurrentPeers (main_AP)
                                                   sNumLinkers (nwk_link)
                                                   sOutFrameQ (nwk_QMgmt)
                                                   sPeerFrameSem (main_AP)
                                                   sRAMAddressIsSet (nwk_globals)
                                                   sReplyDelayContext (mrfi)
                                                   sReplyDelayScalar (mrfi)
                                                   sSFMarker (nwk_mgmt)
                                                   sSelfMeasureSem (main_AP)
                                                   sServiceLinkID (nwk_link)
                                                   sTRACTID (nwk_frame)
                                                   sTid (nwk_join)
                                                   sTid (nwk_link)
                                                   sTid (nwk_mgmt)
                                                   sTid (nwk_ping)
                                                   spCallback (nwk_frame)
                                                   spCallback (nwk_join)
                                                   spSandFContext (nwk_join)
                                                   verboseMode (virtual_com_cmds)
    -------------------------------------------------------------------------
CSTART
  Relative segment, address: 8310 - 831F (0x10 bytes), align: 1
  Segment part 13.
           ENTRY                   ADDRESS         REF BY
           =====                   =======         ======
           ?cstart_init_copy       8310            mrfiRxFilterAddr (mrfi)
                                                   sPersistInfo (nwk)
                                                   tempOffset (main_AP)
    -------------------------------------------------------------------------
CSTART
  Segment part 14. NOT NEEDED.
           ENTRY                   ADDRESS         REF BY
           =====                   =======         ======
           __cstart_init_tls       
    -------------------------------------------------------------------------
DIFUNCT
  Segment part 15. NOT NEEDED.
    -------------------------------------------------------------------------
CSTART
  Segment part 16. NOT NEEDED.
           ENTRY                   ADDRESS         REF BY
           =====                   =======         ======
           ?cstart_call_ctors      
    -------------------------------------------------------------------------
CSTART
  Relative segment, address: 8320 - 8327 (0x8 bytes), align: 1
  Segment part 17.            Intra module refs:   ?cstart_call_low_level_init
                                                   Segment part 9
           ENTRY                   ADDRESS         REF BY
           =====                   =======         ======
           ?cstart_call_main       8320 
           ?cstart_end             8328 
    -------------------------------------------------------------------------
CODE_ID
  Segment part 18. NOT NEEDED.

    -------------------------------------------------------------------------
  LIBRARY MODULE, NAME : ?reset_vector

  SEGMENTS IN THE MODULE
  ======================
RESET
  Relative segment, address: FFFE - FFFF (0x2 bytes), align: 1
  Segment part 0.
           ENTRY                   ADDRESS         REF BY
           =====                   =======         ======
           ?reset_vector           FFFE            Segment part 9 (?cstart)

    -------------------------------------------------------------------------
  LIBRARY MODULE, NAME : ?Epilogue

  SEGMENTS IN THE MODULE
  ======================
<CODE> 1 (was CODE)
  Relative segment, address: A79E - A7AF (0x12 bytes), align: 1
  Segment part 0.
           ENTRY                   ADDRESS         REF BY
           =====                   =======         ======
           ?Epilogue3              A7A8            SMPL_Receive (nwk_api)
                                                   dispatchFrame (nwk_frame)
                                                   nwk_SendEmptyPollRspFrame (nwk_frame)
                                                   nwk_findAlreadyJoined (nwk)
                                                   send_poll_reply (nwk_mgmt)
                                                   smpl_send_join_reply (nwk_join)
           ?Epilogue4              A7A6            MRFI_Transmit (mrfi)
                                                   SMPL_LinkListen (nwk_api)
                                                   nwk_findPeer (nwk)
                                                   nwk_getSandFFrame (nwk_frame)
                                                   nwk_isLinkDuplicate (nwk)
                                                   nwk_saveJoinedDevice (nwk)
                                                   smpl_send_link_reply (nwk_link)
           ?Epilogue5              A7A4            isDupSandFFrame (nwk_frame)
                                                   nwk_QfindSlot (nwk_QMgmt)
                                                   nwk_allocateLocalRxPort (nwk)
                                                   nwk_buildFrame (nwk_frame)
                                                   nwk_isConnectionValid (nwk)
                                                   nwk_isSandFClient (nwk_join)
                                                   transmitData (virtual_com_cmds)
           ?Epilogue6              A7A2 
           ?Epilogue7              A7A0            nwk_retrieveFrame (nwk_frame)
           ?Epilogue8              A79E            nwk_QfindOldest (nwk_QMgmt)
                                                   transmitDataString (virtual_com_cmds)

    -------------------------------------------------------------------------
  LIBRARY MODULE, NAME : ?Cast32f32i

  SEGMENTS IN THE MODULE
  ======================
<CODE> 1 (was CODE)
  Relative segment, address: 9A2A - 9ABB (0x92 bytes), align: 1
  Segment part 0.
           ENTRY                   ADDRESS         REF BY
           =====                   =======         ======
           _Cast32sto32f           9A2A            transmitDataString (virtual_com_cmds)
           _Cast32uto32f           9A3E 

    -------------------------------------------------------------------------
  LIBRARY MODULE, NAME : _Cast32fto32s

  SEGMENTS IN THE MODULE
  ======================
<CODE> 1 (was CODE)
  Relative segment, address: A3EE - A41F (0x32 bytes), align: 1
  Segment part 0.
           ENTRY                   ADDRESS         REF BY
           =====                   =======         ======
           _Cast32fto32s           A3EE            transmitDataString (virtual_com_cmds)

    -------------------------------------------------------------------------
  LIBRARY MODULE, NAME : ?FLT_Extract

  SEGMENTS IN THE MODULE
  ======================
<CODE> 1 (was CODE)
  Relative segment, address: 9FE8 - A033 (0x4c bytes), align: 1
  Segment part 0.
           ENTRY                   ADDRESS         REF BY
           =====                   =======         ======
           ?FLT_Extract            9FE8            _Cast32fto32s (_Cast32fto32s)

    -------------------------------------------------------------------------
  LIBRARY MODULE, NAME : _Mul32f

  SEGMENTS IN THE MODULE
  ======================
<CODE> 1 (was CODE)
  Relative segment, address: 927A - 9389 (0x110 bytes), align: 1
  Segment part 0.
           ENTRY                   ADDRESS         REF BY
           =====                   =======         ======
           _Mul32f                 927A            transmitDataString (virtual_com_cmds)

    -------------------------------------------------------------------------
  LIBRARY MODULE, NAME : ?Mul816

  SEGMENTS IN THE MODULE
  ======================
<CODE> 1 (was CODE)
  Relative segment, address: A3BC - A3ED (0x32 bytes), align: 1
  Segment part 0.
           ENTRY                   ADDRESS         REF BY
           =====                   =======         ======
           ?Mul8                   A3BC            MRFI_RandomByte (mrfi)
           ?Mul16                  A3C0            BSP_Delay (bsp)
                                                   transmitData (virtual_com_cmds)
           ?Mul16to32u             A3C0 

    -------------------------------------------------------------------------
  LIBRARY MODULE, NAME : ?Mul32

  SEGMENTS IN THE MODULE
  ======================
<CODE> 1 (was CODE)
  Relative segment, address: A450 - A47F (0x30 bytes), align: 1
  Segment part 0.
           ENTRY                   ADDRESS         REF BY
           =====                   =======         ======
           ?Mul32                  A450            main (main_AP)

    -------------------------------------------------------------------------
  LIBRARY MODULE, NAME : ?DivMod816u

  SEGMENTS IN THE MODULE
  ======================
<CODE> 1 (was CODE)
  Relative segment, address: A698 - A6B3 (0x1c bytes), align: 1
  Segment part 0.
           ENTRY                   ADDRESS         REF BY
           =====                   =======         ======
           ?DivMod8u               A698            ?Subroutine2 (virtual_com_cmds)
                                                   ?Subroutine3 (virtual_com_cmds)
           ?DivMod16u              A69C            Segment part 0 (?DivMod816s)

    -------------------------------------------------------------------------
  LIBRARY MODULE, NAME : ?DivMod816s

  SEGMENTS IN THE MODULE
  ======================
<CODE> 1 (was CODE)
  Relative segment, address: A320 - A353 (0x34 bytes), align: 1
  Segment part 0.
           ENTRY                   ADDRESS         REF BY
           =====                   =======         ======
           ?DivMod8s               A320 
           ?DivMod16s              A324            ?Subroutine1 (virtual_com_cmds)
                                                   ?Subroutine4 (virtual_com_cmds)
                                                   Mrfi_CalculateRssi (mrfi)
                                                   Segment part 25 (virtual_com_cmds)
                                                   transmitData (virtual_com_cmds)
                                                   transmitDataString (virtual_com_cmds)

    -------------------------------------------------------------------------
  LIBRARY MODULE, NAME : ?DivMod32u

  SEGMENTS IN THE MODULE
  ======================
<CODE> 1 (was CODE)
  Relative segment, address: A27C - A2B3 (0x38 bytes), align: 1
  Segment part 0.
           ENTRY                   ADDRESS         REF BY
           =====                   =======         ======
           ?DivMod32u              A27C            ?DivMod32s (?DivMod32s)

    -------------------------------------------------------------------------
  LIBRARY MODULE, NAME : ?DivMod32s

  SEGMENTS IN THE MODULE
  ======================
<CODE> 1 (was CODE)
  Relative segment, address: A10A - A149 (0x40 bytes), align: 1
  Segment part 0.
           ENTRY                   ADDRESS         REF BY
           =====                   =======         ======
           ?DivMod32s              A10A            main (main_AP)

    -------------------------------------------------------------------------
  LIBRARY MODULE, NAME : ?ShiftLeft16_n

  SEGMENTS IN THE MODULE
  ======================
CODE
  Segment part 0. NOT NEEDED.
           ENTRY                   ADDRESS         REF BY
           =====                   =======         ======
           ?ShiftLeft16_7          
           ?ShiftLeft16_6          
           ?ShiftLeft16_5          
           ?ShiftLeft16_4          
           ?ShiftLeft16_3          

    -------------------------------------------------------------------------
  LIBRARY MODULE, NAME : ?ShiftLeft32_n

  SEGMENTS IN THE MODULE
  ======================
CODE
  Segment part 0. NOT NEEDED.
           ENTRY                   ADDRESS         REF BY
           =====                   =======         ======
           ?ShiftLeft32_7          
    -------------------------------------------------------------------------
CODE
  Segment part 1. NOT NEEDED.
           ENTRY                   ADDRESS         REF BY
           =====                   =======         ======
           ?ShiftLeft32_6          
    -------------------------------------------------------------------------
CODE
  Segment part 2. NOT NEEDED.
           ENTRY                   ADDRESS         REF BY
           =====                   =======         ======
           ?ShiftLeft32_5          
    -------------------------------------------------------------------------
CODE
  Segment part 3. NOT NEEDED.
           ENTRY                   ADDRESS         REF BY
           =====                   =======         ======
           ?ShiftLeft32_4          
    -------------------------------------------------------------------------
CODE
  Segment part 4. NOT NEEDED.
           ENTRY                   ADDRESS         REF BY
           =====                   =======         ======
           ?ShiftLeft32_3          

    -------------------------------------------------------------------------
  LIBRARY MODULE, NAME : ?ShiftRight16u_n

  SEGMENTS IN THE MODULE
  ======================
CODE
  Segment part 0. NOT NEEDED.
           ENTRY                   ADDRESS         REF BY
           =====                   =======         ======
           ?ShiftRight16u_7        
    -------------------------------------------------------------------------
CODE
  Segment part 1. NOT NEEDED.
           ENTRY                   ADDRESS         REF BY
           =====                   =======         ======
           ?ShiftRight16u_6        
    -------------------------------------------------------------------------
CODE
  Segment part 2. NOT NEEDED.
           ENTRY                   ADDRESS         REF BY
           =====                   =======         ======
           ?ShiftRight16u_5        
    -------------------------------------------------------------------------
<CODE> 1 (was CODE)
  Relative segment, address: A8B8 - A8BB (0x4 bytes), align: 1
  Segment part 3.
           ENTRY                   ADDRESS         REF BY
           =====                   =======         ======
           ?ShiftRight16u_4        A8B8            Mrfi_DelayUsec (mrfi)
                                                   transmitDataString (virtual_com_cmds)
    -------------------------------------------------------------------------
<CODE> 1 (was CODE)
  Relative segment, address: A8BC - A8C5 (0xa bytes), align: 1
  Segment part 4.             Intra module refs:   ?ShiftRight16u_4
           ENTRY                   ADDRESS         REF BY
           =====                   =======         ======
           ?ShiftRight16u_3        A8BC 

    -------------------------------------------------------------------------
  LIBRARY MODULE, NAME : ?memcmp

  SEGMENTS IN THE MODULE
  ======================
<CODE> 1 (was CODE)
  Relative segment, address: A5F8 - A619 (0x22 bytes), align: 1
  Segment part 2.
           ENTRY                   ADDRESS         REF BY
           =====                   =======         ======
           memcmp                  A5F8            ?Subroutine3 (nwk)
                                                   dispatchFrame (nwk_frame)
                                                   isDupSandFFrame (nwk_frame)
                                                   nwk_QfindOldest (nwk_QMgmt)
                                                   nwk_findPeer (nwk)
                                                   nwk_getSandFFrame (nwk_frame)
                                                   nwk_isSandFClient (nwk_join)
                                                   nwk_isValidReply (nwk)
                                                   nwk_processMgmt (nwk_mgmt)
               CSTACK = 00000000 ( 00000004 )
    -------------------------------------------------------------------------
CSTACK
  Segment part 1. NOT NEEDED.

    -------------------------------------------------------------------------
  LIBRARY MODULE, NAME : ?memcpy

  SEGMENTS IN THE MODULE
  ======================
<CODE> 1 (was CODE)
  Relative segment, address: A6EA - A703 (0x1a bytes), align: 1
  Segment part 2.
           ENTRY                   ADDRESS         REF BY
           =====                   =======         ======
           memcpy                  A6EA            ?Subroutine0 (nwk_globals)
                                                   ?Subroutine6 (nwk_link)
                                                   SMPL_Ioctl (nwk_api)
                                                   __data16_memcpy (?memzero)
                                                   nwk_SendEmptyPollRspFrame (nwk_frame)
                                                   nwk_buildFrame (nwk_frame)
                                                   nwk_deviceAddress (nwk_ioctl)
                                                   nwk_nwkInit (nwk)
                                                   nwk_radioControl (nwk_ioctl)
                                                   nwk_rawSend (nwk_ioctl)
                                                   nwk_retrieveFrame (nwk_frame)
                                                   nwk_saveJoinedDevice (nwk)
                                                   smpl_send_join_reply (nwk_join)
                                                   smpl_send_link_reply (nwk_link)
                                                   smpl_send_ping_reply (nwk_ping)
               CSTACK = 00000000 ( 00000004 )
    -------------------------------------------------------------------------
CSTACK
  Segment part 1. NOT NEEDED.

    -------------------------------------------------------------------------
  LIBRARY MODULE, NAME : ?memmove

  SEGMENTS IN THE MODULE
  ======================
<CODE> 1 (was CODE)
  Relative segment, address: A206 - A241 (0x3c bytes), align: 1
  Segment part 2.
           ENTRY                   ADDRESS         REF BY
           =====                   =======         ======
           memmove                 A206            nwk_getNumObjectFromMsg (nwk)
                                                   nwk_putNumObjectIntoMsg (nwk)
               CSTACK = 00000000 ( 00000004 )
    -------------------------------------------------------------------------
CSTACK
  Segment part 1. NOT NEEDED.

    -------------------------------------------------------------------------
  LIBRARY MODULE, NAME : ?CopyMemoryBytes

  SEGMENTS IN THE MODULE
  ======================
<CODE> 1 (was CODE)
  Relative segment, address: A84E - A85D (0x10 bytes), align: 1
  Segment part 0.
           ENTRY                   ADDRESS         REF BY
           =====                   =======         ======
           ?CopyMemoryBytes        A84E            MRFI_Receive (mrfi)
                                                   main (main_AP)
                                                   transmitDataString (virtual_com_cmds)

    -------------------------------------------------------------------------
  LIBRARY MODULE, NAME : ?memset

  SEGMENTS IN THE MODULE
  ======================
<CODE> 1 (was CODE)
  Relative segment, address: A71C - A733 (0x18 bytes), align: 1
  Segment part 2.
           ENTRY                   ADDRESS         REF BY
           =====                   =======         ======
           memset                  A71C            MRFI_Init (mrfi)
                                                   Segment part 50 (mrfi)
                                                   nwk_QInit (nwk_QMgmt)
                                                   nwk_allocateLocalRxPort (nwk)
                                                   nwk_globalsInit (nwk_globals)
                                                   nwk_linkInit (nwk_link)
                                                   nwk_mgmtInit (nwk_mgmt)
                                                   nwk_nwkInit (nwk)
               CSTACK = 00000000 ( 00000004 )
    -------------------------------------------------------------------------
CSTACK
  Segment part 1. NOT NEEDED.

    -------------------------------------------------------------------------
  LIBRARY MODULE, NAME : ?memzero

  SEGMENTS IN THE MODULE
  ======================
<CODE> 1 (was CODE)
  Relative segment, address: A80A - A81B (0x12 bytes), align: 1
  Segment part 4.
           ENTRY                   ADDRESS         REF BY
           =====                   =======         ======
           __data16_memzero        A80A            ?cstart_init_zero (?cstart)
               CSTACK = 00000000 ( 00000002 )
    -------------------------------------------------------------------------
<CODE> 1 (was CODE)
  Relative segment, address: A93E - A941 (0x4 bytes), align: 1
  Segment part 3.
           ENTRY                   ADDRESS         REF BY
           =====                   =======         ======
           __data16_memcpy         A93E            ?cstart_init_copy (?cstart)
               calls direct
               CSTACK = 00000000 ( 00000002 )
    -------------------------------------------------------------------------
CODE
  Segment part 2. NOT NEEDED.
           ENTRY                   ADDRESS         REF BY
           =====                   =======         ======
           __data16_memmove        
               calls direct
    -------------------------------------------------------------------------
CSTACK
  Segment part 1. NOT NEEDED.

    -------------------------------------------------------------------------
  LIBRARY MODULE, NAME : ?setjmp

  SEGMENTS IN THE MODULE
  ======================
CODE
  Segment part 0. NOT NEEDED.
           ENTRY                   ADDRESS         REF BY
           =====                   =======         ======
           setjmp                  
    -------------------------------------------------------------------------
CODE
  Segment part 1. NOT NEEDED.
           ENTRY                   ADDRESS         REF BY
           =====                   =======         ======
           ?setjmp_r5              
    -------------------------------------------------------------------------
CODE
  Segment part 2. NOT NEEDED.
           ENTRY                   ADDRESS         REF BY
           =====                   =======         ======
           ?setjmp_r4              
    -------------------------------------------------------------------------
CODE
  Segment part 3. NOT NEEDED.
           ENTRY                   ADDRESS         REF BY
           =====                   =======         ======
           ?setjmp_end             

    -------------------------------------------------------------------------
  LIBRARY MODULE, NAME : ?longjmp

  SEGMENTS IN THE MODULE
  ======================
CODE
  Segment part 0. NOT NEEDED.
           ENTRY                   ADDRESS         REF BY
           =====                   =======         ======
           longjmp                 
    -------------------------------------------------------------------------
CODE
  Segment part 1. NOT NEEDED.
           ENTRY                   ADDRESS         REF BY
           =====                   =======         ======
           ?longjmp_r5             
    -------------------------------------------------------------------------
CODE
  Segment part 2. NOT NEEDED.
           ENTRY                   ADDRESS         REF BY
           =====                   =======         ======
           ?longjmp_r4             
    -------------------------------------------------------------------------
CODE
  Segment part 3. NOT NEEDED.
           ENTRY                   ADDRESS         REF BY
           =====                   =======         ======
           ?longjmp_end            

    -------------------------------------------------------------------------
  LIBRARY MODULE, NAME : ?SwitchKey8

  SEGMENTS IN THE MODULE
  ======================
CODE
  Segment part 0. NOT NEEDED.
           ENTRY                   ADDRESS         REF BY
           =====                   =======         ======
           ?SwitchKey8             




                ****************************************
                *                                      *
                *            MODULE SUMMARY            *
                *                                      *
                ****************************************

Module               CODE      DATA      CONST
------               ----      ----      -----
                    (Rel)  (Rel)  (Abs)  (Rel)
?Cast32f32i           146
?CopyMemoryBytes       16
?DivMod32s             64
?DivMod32u             56
?DivMod816s            52
?DivMod816u            28
?Epilogue              18
?FLT_Extract           76
?Mul32                 48
?Mul816                50
?ShiftRight16u_n       14
?__exit                 2
?_exit                  4
?clibexit               4
?cstart                48
?memcmp                34
?memcpy                26
?memmove               60
?memset                24
?memzero               22
?reset_vector           2
ADC10_init                            1
  + shared                            2
CSL_init
  + shared                            2
GPIO_init                             4
  + shared                            5
_Cast32fto32s          50
_Mul32f               272
bsp                   128      1      5
  + shared                            2
main_AP               626     15     10    441
  + common             20
mrfi                1 696     37     11     75
  + shared              8             2
  + common
nwk                 1 164    120           120
nwk_QMgmt             528    208
nwk_api               482      1
nwk_frame           1 154      7            12
nwk_freq                6
nwk_globals           100      9             9
nwk_ioctl             384
nwk_join              532     10
nwk_link              706     15
nwk_mgmt              238      4
nwk_ping              134      1
nwk_security            6
virtual_com_cmds      838      2      7    102
  + common             16
N/A (command line)           200
N/A (alignment)
----------          -----    ---     --    ---
Total:              9 838    630     51    759
  + common             20


                ****************************************
                *                                      *
                *              CALL GRAPH              *
                *                                      *
                ****************************************

  ->Sub-tree of type: Interrupt function tree that does not make
                    : indirect calls
                             CSTACK
    | Stack used (prev) :  00000000
  01  ADC10_ISR
      | Stack used (prev) :  00000000
      | + function block  :  00000004
  <-Sub-tree of type: Interrupt function tree that does not make
                    : indirect calls
    | Stack used          :  00000004


  ->Sub-tree of type: Interrupt function tree that does not make
                    : indirect calls
                             CSTACK
    | Stack used (prev) :  00000004
  01  Timer_A
      | Stack used (prev) :  00000004
      | + function block  :  00000004
  <-Sub-tree of type: Interrupt function tree that does not make
                    : indirect calls
    | Stack used          :  00000008


  ->Sub-tree of type: Interrupt function tree that does not make
                    : indirect calls
                             CSTACK
    | Stack used (prev) :  00000008
  04        memset
            | Stack used (prev) :  00000008
            | + function block  :  00000004
  06            memcmp
                | Stack used (prev) :  00000008
                | + function block  :  00000004
  07              memcmp
                  | Stack used (prev) :  00000008
                  | + function block  :  00000004
                  |  Already listed
  06            nwk_isSandFClient
                | Stack used (prev) :  0000000C
                | + function block  :  0000000C
  06            nwk_getBCastAddress
                | Stack used (prev) :  00000008
                | + function block  :  00000002
  07              nwk_getQ
                  | Stack used (prev) :  00000008
                  | + function block  :  00000002
  06            isDupSandFFrame
                | Stack used (prev) :  0000000A
                | + function block  :  0000000C
  09                  MRFI_RandomByte
                      | Stack used (prev) :  00000008
                      | + function block  :  00000002
  10                    BSP_Delay
                        | Stack used (prev) :  00000008
                        | + function block  :  00000004
  09                  Mrfi_DelayUsec
                      | Stack used (prev) :  0000000C
                      | + function block  :  00000006
  09                  Mrfi_DelayUsec
                      | Stack used (prev) :  0000000C
                      | + function block  :  00000006
                      |  Already listed
  09                  Mrfi_DelayUsec
                      | Stack used (prev) :  0000000C
                      | + function block  :  00000006
                      |  Already listed
  10                    spiBurstFifoAccess
                        | Stack used (prev) :  00000008
                        | + function block  :  00000002
  09                  mrfiSpiWriteTxFifo
                      | Stack used (prev) :  0000000A
                      | + function block  :  00000002
  10                    mrfiSpiCmdStrobe
                        | Stack used (prev) :  00000008
                        | + function block  :  00000002
  10                    mrfiSpiCmdStrobe
                        | Stack used (prev) :  00000008
                        | + function block  :  00000002
                        |  Already listed
  10                    mrfiSpiCmdStrobe
                        | Stack used (prev) :  00000008
                        | + function block  :  00000002
                        |  Already listed
  09                  Mrfi_RxModeOff
                      | Stack used (prev) :  0000000A
                      | + function block  :  00000002
  10                    mrfiSpiCmdStrobe
                        | Stack used (prev) :  00000008
                        | + function block  :  00000002
                        |  Already listed
  09                  Mrfi_RxModeOn
                      | Stack used (prev) :  0000000A
                      | + function block  :  00000002
  10                    spiRegAccess
                        | Stack used (prev) :  00000008
                        | + function block  :  00000002
  09                  mrfiSpiWriteReg
                      | Stack used (prev) :  0000000A
                      | + function block  :  00000002
  09                  mrfiSpiWriteReg
                      | Stack used (prev) :  0000000A
                      | + function block  :  00000002
                      |  Already listed
  10                    spiRegAccess
                        | Stack used (prev) :  00000008
                        | + function block  :  00000002
                        |  Already listed
  09                  mrfiSpiReadReg
                      | Stack used (prev) :  0000000A
                      | + function block  :  00000002
  09                  mrfiSpiCmdStrobe
                      | Stack used (prev) :  00000008
                      | + function block  :  00000002
                      |  Already listed
  09                  mrfiSpiCmdStrobe
                      | Stack used (prev) :  00000008
                      | + function block  :  00000002
                      |  Already listed
  08                MRFI_Transmit
                    | Stack used (prev) :  00000012
                    | + function block  :  0000000A
  07              nwk_sendFrame
                  | Stack used (prev) :  0000001C
                  | + function block  :  00000004
  08                Mrfi_DelayUsec
                    | Stack used (prev) :  0000000C
                    | + function block  :  00000006
                    |  Already listed
  07              MRFI_DelayMs
                  | Stack used (prev) :  00000012
                  | + function block  :  00000004
  06            nwk_replayFrame
                | Stack used (prev) :  00000020
                | + function block  :  00000004
  06            nwk_replayFrame
                | Stack used (prev) :  00000020
                | + function block  :  00000004
                |  Already listed
  07              memcmp
                  | Stack used (prev) :  00000008
                  | + function block  :  00000004
                  |  Already listed
  07              MRFI_PostKillSem
                  | Stack used (prev) :  00000008
                  | + function block  :  00000002
  06            nwk_isConnectionValid
                | Stack used (prev) :  0000000C
                | + function block  :  0000000C
  05          dispatchFrame
              | Stack used (prev) :  00000024
              | + function block  :  0000000A
  06            nwk_QadjustOrder
                | Stack used (prev) :  00000008
                | + function block  :  00000002
  05          nwk_QfindSlot
              | Stack used (prev) :  0000000A
              | + function block  :  0000000C
  05          MRFI_Receive
              | Stack used (prev) :  00000008
              | + function block  :  00000002
  04        MRFI_RxCompleteISR
            | Stack used (prev) :  0000002E
            | + function block  :  00000004
  04        Mrfi_CalculateRssi
            | Stack used (prev) :  00000008
            | + function block  :  00000002
  04        mrfiSpiReadReg
            | Stack used (prev) :  0000000A
            | + function block  :  00000002
            |  Already listed
  04        mrfiSpiReadReg
            | Stack used (prev) :  0000000A
            | + function block  :  00000002
            |  Already listed
  05          spiBurstFifoAccess
              | Stack used (prev) :  00000008
              | + function block  :  00000002
              |  Already listed
  04        mrfiSpiReadRxFifo
            | Stack used (prev) :  0000000A
            | + function block  :  00000002
  04        mrfiSpiReadRxFifo
            | Stack used (prev) :  0000000A
            | + function block  :  00000002
            |  Already listed
  04        mrfiSpiReadRxFifo
            | Stack used (prev) :  0000000A
            | + function block  :  00000002
            |  Already listed
  04        mrfiSpiCmdStrobe
            | Stack used (prev) :  00000008
            | + function block  :  00000002
            |  Already listed
  04        mrfiSpiCmdStrobe
            | Stack used (prev) :  00000008
            | + function block  :  00000002
            |  Already listed
  04        mrfiSpiCmdStrobe
            | Stack used (prev) :  00000008
            | + function block  :  00000002
            |  Already listed
  04        MRFI_RxAddrIsFiltered
            | Stack used (prev) :  00000008
            | + function block  :  00000006
  03      Mrfi_SyncPinRxIsr
          | Stack used (prev) :  00000032
          | + function block  :  00000008
  02    MRFI_GpioIsr
        | Stack used (prev) :  0000003A
        | + function block  :  00000002
  01  BSP_GpioPort1Isr
      | Stack used (prev) :  0000003C
      | + function block  :  0000000C
  <-Sub-tree of type: Interrupt function tree that does not make
                    : indirect calls
    | Stack used          :  00000048


  ->Sub-tree of type: Interrupt function tree that does not make
                    : indirect calls
                             CSTACK
    | Stack used (prev) :  00000048
  01  USCI0RX_ISR
      | Stack used (prev) :  00000048
      | + function block  :  00000006
  <-Sub-tree of type: Interrupt function tree that does not make
                    : indirect calls
    | Stack used          :  0000004E


  ->Sub-tree of type: Indirectly called function tree that does not make
                    : indirect calls (Is not an interrupt and is not flagged
                    : as not overlayable)
                             CSTACK
    | Stack used (prev) :  0000004E
  01  sCB
      | Stack used (prev) :  0000004E
      | + function block  :  00000002
  <-Sub-tree of type: Indirectly called function tree that does not make
                    : indirect calls (Is not an interrupt and is not flagged
                    : as not overlayable)
    | Stack used          :  00000050


  ->Sub-tree of type: Indirectly called function tree that does not make
                    : indirect calls (Is not an interrupt and is not flagged
                    : as not overlayable)
                             CSTACK
    | Stack used (prev) :  0000004E
  01  nwk_processFreq
      | Stack used (prev) :  0000004E
      | + function block  :  00000002
  <-Sub-tree of type: Indirectly called function tree that does not make
                    : indirect calls (Is not an interrupt and is not flagged
                    : as not overlayable)
    | Stack used          :  00000050


  ->Sub-tree of type: Indirectly called function tree that does not make
                    : indirect calls (Is not an interrupt and is not flagged
                    : as not overlayable)
                             CSTACK
    | Stack used (prev) :  0000004E
  03      memcpy
          | Stack used (prev) :  0000004E
          | + function block  :  00000004
  03      nwk_resetSFMarker
          | Stack used (prev) :  0000004E
          | + function block  :  00000002
  03      nwk_getLinkToken
          | Stack used (prev) :  0000004E
          | + function block  :  00000002
  03      nwk_isSandFClient
          | Stack used (prev) :  0000000C
          | + function block  :  0000000C
          |  Already listed
  03      nwk_getProtocolVersion
          | Stack used (prev) :  0000004E
          | + function block  :  00000002
  03      nwk_sendFrame
          | Stack used (prev) :  0000001C
          | + function block  :  00000004
          |  Already listed
  04        memcpy
            | Stack used (prev) :  0000004E
            | + function block  :  00000004
            |  Already listed
  04        nwk_QfindSlot
            | Stack used (prev) :  0000000A
            | + function block  :  0000000C
            |  Already listed
  03      nwk_buildFrame
          | Stack used (prev) :  00000052
          | + function block  :  0000000C
  04        memmove
            | Stack used (prev) :  0000004E
            | + function block  :  00000004
  03      nwk_putNumObjectIntoMsg
          | Stack used (prev) :  00000052
          | + function block  :  00000008
  04        memmove
            | Stack used (prev) :  0000004E
            | + function block  :  00000004
            |  Already listed
  03      nwk_getNumObjectFromMsg
          | Stack used (prev) :  00000052
          | + function block  :  00000006
  04        memcpy
            | Stack used (prev) :  0000004E
            | + function block  :  00000004
            |  Already listed
  04        memcmp
            | Stack used (prev) :  00000008
            | + function block  :  00000004
            |  Already listed
  03      nwk_saveJoinedDevice
          | Stack used (prev) :  00000052
          | + function block  :  0000000A
  02    smpl_send_join_reply
        | Stack used (prev) :  0000005E
        | + function block  :  00000014
  03      memcmp
          | Stack used (prev) :  00000008
          | + function block  :  00000004
          |  Already listed
  03      nwk_getMyAddress
          | Stack used (prev) :  0000004E
          | + function block  :  00000002
  02    nwk_isValidReply
        | Stack used (prev) :  00000050
        | + function block  :  00000006
  02    MRFI_PostKillSem
        | Stack used (prev) :  00000008
        | + function block  :  00000002
        |  Already listed
  01  nwk_processJoin
      | Stack used (prev) :  00000072
      | + function block  :  00000006
  <-Sub-tree of type: Indirectly called function tree that does not make
                    : indirect calls (Is not an interrupt and is not flagged
                    : as not overlayable)
    | Stack used          :  00000078


  ->Sub-tree of type: Indirectly called function tree that does not make
                    : indirect calls (Is not an interrupt and is not flagged
                    : as not overlayable)
                             CSTACK
    | Stack used (prev) :  0000004E
  04        memcpy
            | Stack used (prev) :  0000004E
            | + function block  :  00000004
            |  Already listed
  04        nwk_getProtocolVersion
            | Stack used (prev) :  0000004E
            | + function block  :  00000002
            |  Already listed
  04        nwk_getMyRxType
            | Stack used (prev) :  0000004E
            | + function block  :  00000002
  04        nwk_sendFrame
            | Stack used (prev) :  0000001C
            | + function block  :  00000004
            |  Already listed
  04        nwk_buildFrame
            | Stack used (prev) :  00000052
            | + function block  :  0000000C
            |  Already listed
  04        nwk_getNumObjectFromMsg
            | Stack used (prev) :  00000052
            | + function block  :  00000006
            |  Already listed
  05          memset
              | Stack used (prev) :  00000008
              | + function block  :  00000004
              |  Already listed
  05          memcmp
              | Stack used (prev) :  00000008
              | + function block  :  00000004
              |  Already listed
  04        nwk_allocateLocalRxPort
            | Stack used (prev) :  0000004E
            | + function block  :  00000014
  05          memcmp
              | Stack used (prev) :  00000008
              | + function block  :  00000004
              |  Already listed
  04        nwk_isLinkDuplicate
            | Stack used (prev) :  0000004E
            | + function block  :  0000000A
  04        nwk_freeConnection
            | Stack used (prev) :  0000004E
            | + function block  :  00000002
  05          memcmp
              | Stack used (prev) :  00000008
              | + function block  :  00000004
              |  Already listed
  06            map_lid2idx
                | Stack used (prev) :  0000004E
                | + function block  :  00000002
  05          initializeConnection
              | Stack used (prev) :  00000050
              | + function block  :  00000004
  04        nwk_findAlreadyJoined
            | Stack used (prev) :  00000054
            | + function block  :  00000008
  05          initializeConnection
              | Stack used (prev) :  00000050
              | + function block  :  00000004
              |  Already listed
  04        nwk_getNextConnection
            | Stack used (prev) :  00000054
            | + function block  :  00000004
  03      smpl_send_link_reply
          | Stack used (prev) :  00000062
          | + function block  :  00000012
  04        memcpy
            | Stack used (prev) :  0000004E
            | + function block  :  00000004
            |  Already listed
  04        nwk_sendFrame
            | Stack used (prev) :  0000001C
            | + function block  :  00000004
            |  Already listed
  04        nwk_buildFrame
            | Stack used (prev) :  00000052
            | + function block  :  0000000C
            |  Already listed
  05          memcmp
              | Stack used (prev) :  00000008
              | + function block  :  00000004
              |  Already listed
  04        nwk_findPeer
            | Stack used (prev) :  0000004E
            | + function block  :  0000000A
  04        nwk_freeConnection
            | Stack used (prev) :  0000004E
            | + function block  :  00000002
            |  Already listed
  03      smpl_send_unlink_reply
          | Stack used (prev) :  0000005E
          | + function block  :  0000000A
  02    handleLinkRequest
        | Stack used (prev) :  00000074
        | + function block  :  00000004
  02    nwk_isValidReply
        | Stack used (prev) :  00000050
        | + function block  :  00000006
        |  Already listed
  02    MRFI_PostKillSem
        | Stack used (prev) :  00000008
        | + function block  :  00000002
        |  Already listed
  01  nwk_processLink
      | Stack used (prev) :  00000078
      | + function block  :  00000004
  <-Sub-tree of type: Indirectly called function tree that does not make
                    : indirect calls (Is not an interrupt and is not flagged
                    : as not overlayable)
    | Stack used          :  0000007C


  ->Sub-tree of type: Indirectly called function tree that does not make
                    : indirect calls (Is not an interrupt and is not flagged
                    : as not overlayable)
                             CSTACK
    | Stack used (prev) :  0000004E
  02    memcmp
        | Stack used (prev) :  00000008
        | + function block  :  00000004
        |  Already listed
  03      nwk_isSandFClient
          | Stack used (prev) :  0000000C
          | + function block  :  0000000C
          |  Already listed
  04        memcpy
            | Stack used (prev) :  0000004E
            | + function block  :  00000004
            |  Already listed
  04        MRFI_Transmit
            | Stack used (prev) :  00000012
            | + function block  :  0000000A
            |  Already listed
  03      nwk_SendEmptyPollRspFrame
          | Stack used (prev) :  00000052
          | + function block  :  00000020
  04        memcmp
            | Stack used (prev) :  00000008
            | + function block  :  00000004
            |  Already listed
  04        nwk_getQ
            | Stack used (prev) :  00000008
            | + function block  :  00000002
            |  Already listed
  05          memcmp
              | Stack used (prev) :  00000008
              | + function block  :  00000004
              |  Already listed
  06            map_lid2idx
                | Stack used (prev) :  0000004E
                | + function block  :  00000002
                |  Already listed
  05          nwk_getConnInfo
              | Stack used (prev) :  00000050
              | + function block  :  00000004
  04        nwk_QfindOldest
            | Stack used (prev) :  00000054
            | + function block  :  00000016
  03      nwk_getSandFFrame
          | Stack used (prev) :  0000006A
          | + function block  :  0000000E
  03      nwk_sendFrame
          | Stack used (prev) :  0000001C
          | + function block  :  00000004
          |  Already listed
  03      nwk_QadjustOrder
          | Stack used (prev) :  00000008
          | + function block  :  00000002
          |  Already listed
  03      nwk_checkAppMsgTID
          | Stack used (prev) :  0000004E
          | + function block  :  00000002
  02    send_poll_reply
        | Stack used (prev) :  00000078
        | + function block  :  0000000A
  02    nwk_getMyAddress
        | Stack used (prev) :  0000004E
        | + function block  :  00000002
        |  Already listed
  02    nwk_isValidReply
        | Stack used (prev) :  00000050
        | + function block  :  00000006
        |  Already listed
  02    MRFI_PostKillSem
        | Stack used (prev) :  00000008
        | + function block  :  00000002
        |  Already listed
  01  nwk_processMgmt
      | Stack used (prev) :  00000082
      | + function block  :  00000004
  <-Sub-tree of type: Indirectly called function tree that does not make
                    : indirect calls (Is not an interrupt and is not flagged
                    : as not overlayable)
    | Stack used          :  00000086


  ->Sub-tree of type: Indirectly called function tree that does not make
                    : indirect calls (Is not an interrupt and is not flagged
                    : as not overlayable)
                             CSTACK
    | Stack used (prev) :  0000004E
  03      memcpy
          | Stack used (prev) :  0000004E
          | + function block  :  00000004
          |  Already listed
  03      nwk_sendFrame
          | Stack used (prev) :  0000001C
          | + function block  :  00000004
          |  Already listed
  03      nwk_buildFrame
          | Stack used (prev) :  00000052
          | + function block  :  0000000C
          |  Already listed
  02    smpl_send_ping_reply
        | Stack used (prev) :  0000005E
        | + function block  :  00000006
  02    nwk_isValidReply
        | Stack used (prev) :  00000050
        | + function block  :  00000006
        |  Already listed
  02    MRFI_PostKillSem
        | Stack used (prev) :  00000008
        | + function block  :  00000002
        |  Already listed
  01  nwk_processPing
      | Stack used (prev) :  00000064
      | + function block  :  00000004
  <-Sub-tree of type: Indirectly called function tree that does not make
                    : indirect calls (Is not an interrupt and is not flagged
                    : as not overlayable)
    | Stack used          :  00000068


  ->Sub-tree of type: Indirectly called function tree that does not make
                    : indirect calls (Is not an interrupt and is not flagged
                    : as not overlayable)
                             CSTACK
    | Stack used (prev) :  0000004E
  01  nwk_processSecurity
      | Stack used (prev) :  0000004E
      | + function block  :  00000002
  <-Sub-tree of type: Indirectly called function tree that does not make
                    : indirect calls (Is not an interrupt and is not flagged
                    : as not overlayable)
    | Stack used          :  00000050


  ->Sub-tree of type: Function tree
                             CSTACK
    | Stack used (prev) :  00000086
  01  __low_level_init
      | Stack used (prev) :  00000086
      | + function block  :  00000002
  <-Sub-tree of type: Function tree
    | Stack used          :  00000088


  ->Sub-tree of type: Function tree
                             CSTACK
    | Stack used (prev) :  00000088
  04        TXString
            | Stack used (prev) :  00000088
            | + function block  :  00000002
  04        TXString
            | Stack used (prev) :  00000088
            | + function block  :  00000002
            |  Already listed
  03      transmitDataString
          | Stack used (prev) :  0000008A
          | + function block  :  0000007A
  02    transmitData
        | Stack used (prev) :  00000104
        | + function block  :  00000016
  02    transmitDataString
        | Stack used (prev) :  0000008A
        | + function block  :  0000007A
        |  Already listed
  02    TXString
        | Stack used (prev) :  00000088
        | + function block  :  00000002
        |  Already listed
  02    COM_Init
        | Stack used (prev) :  00000088
        | + function block  :  00000002
  03      memcpy
          | Stack used (prev) :  0000004E
          | + function block  :  00000004
          |  Already listed
  03      nwk_getLinkToken
          | Stack used (prev) :  0000004E
          | + function block  :  00000002
          |  Already listed
  03      nwk_setLinkToken
          | Stack used (prev) :  00000088
          | + function block  :  00000002
  03      nwk_getJoinToken
          | Stack used (prev) :  00000088
          | + function block  :  00000002
  03      nwk_setJoinToken
          | Stack used (prev) :  00000088
          | + function block  :  00000002
  04        nwk_getConnInfo
            | Stack used (prev) :  00000050
            | + function block  :  00000004
            |  Already listed
  04        nwk_freeConnection
            | Stack used (prev) :  0000004E
            | + function block  :  00000002
            |  Already listed
  03      nwk_connectionControl
          | Stack used (prev) :  00000088
          | + function block  :  00000002
  04        memcpy
            | Stack used (prev) :  0000004E
            | + function block  :  00000004
            |  Already listed
  04        nwk_sendFrame
            | Stack used (prev) :  0000001C
            | + function block  :  00000004
            |  Already listed
  04        nwk_buildFrame
            | Stack used (prev) :  00000052
            | + function block  :  0000000C
            |  Already listed
  03      nwk_rawSend
          | Stack used (prev) :  00000088
          | + function block  :  00000006
  05          memcpy
              | Stack used (prev) :  0000004E
              | + function block  :  00000004
              |  Already listed
  05          nwk_QfindOldest
              | Stack used (prev) :  00000054
              | + function block  :  00000016
              |  Already listed
  05          nwk_QadjustOrder
              | Stack used (prev) :  00000008
              | + function block  :  00000002
              |  Already listed
  05          nwk_getConnInfo
              | Stack used (prev) :  00000050
              | + function block  :  00000004
              |  Already listed
  04        nwk_retrieveFrame
            | Stack used (prev) :  00000088
            | + function block  :  00000010
  03      nwk_rawReceive
          | Stack used (prev) :  00000098
          | + function block  :  00000008
  04        memcpy
            | Stack used (prev) :  0000004E
            | + function block  :  00000004
            |  Already listed
  04        nwk_getConnInfo
            | Stack used (prev) :  00000050
            | + function block  :  00000004
            |  Already listed
  05          Mrfi_RxModeOn
              | Stack used (prev) :  0000000A
              | + function block  :  00000002
              |  Already listed
  04        MRFI_RxOn
            | Stack used (prev) :  00000088
            | + function block  :  00000002
  06            Mrfi_RxModeOff
                | Stack used (prev) :  0000000A
                | + function block  :  00000002
                |  Already listed
  05          MRFI_RxIdle
              | Stack used (prev) :  00000088
              | + function block  :  00000002
  05          mrfiSpiCmdStrobe
              | Stack used (prev) :  00000008
              | + function block  :  00000002
              |  Already listed
  04        MRFI_Sleep
            | Stack used (prev) :  0000008A
            | + function block  :  00000002
  04        MRFI_RxIdle
            | Stack used (prev) :  00000088
            | + function block  :  00000002
            |  Already listed
  05          mrfiSpiWriteReg
              | Stack used (prev) :  0000000A
              | + function block  :  00000002
              |  Already listed
  05          mrfiSpiWriteReg
              | Stack used (prev) :  0000000A
              | + function block  :  00000002
              |  Already listed
  05          mrfiSpiWriteReg
              | Stack used (prev) :  0000000A
              | + function block  :  00000002
              |  Already listed
  05          mrfiSpiCmdStrobe
              | Stack used (prev) :  00000008
              | + function block  :  00000002
              |  Already listed
  05          mrfiSpiCmdStrobe
              | Stack used (prev) :  00000008
              | + function block  :  00000002
              |  Already listed
  04        MRFI_WakeUp
            | Stack used (prev) :  00000088
            | + function block  :  00000002
  05          Mrfi_CalculateRssi
              | Stack used (prev) :  00000008
              | + function block  :  00000002
              |  Already listed
  05          Mrfi_DelayUsec
              | Stack used (prev) :  0000000C
              | + function block  :  00000006
              |  Already listed
  05          mrfiSpiReadReg
              | Stack used (prev) :  0000000A
              | + function block  :  00000002
              |  Already listed
  05          mrfiSpiReadReg
              | Stack used (prev) :  0000000A
              | + function block  :  00000002
              |  Already listed
  04        MRFI_Rssi
            | Stack used (prev) :  00000088
            | + function block  :  00000004
  05          Mrfi_RxModeOff
              | Stack used (prev) :  0000000A
              | + function block  :  00000002
              |  Already listed
  05          Mrfi_RxModeOn
              | Stack used (prev) :  0000000A
              | + function block  :  00000002
              |  Already listed
  05          mrfiSpiWriteReg
              | Stack used (prev) :  0000000A
              | + function block  :  00000002
              |  Already listed
  04        MRFI_SetRFPwr
            | Stack used (prev) :  00000088
            | + function block  :  00000002
  03      nwk_radioControl
          | Stack used (prev) :  0000008C
          | + function block  :  00000006
  04        nwk_setJoinContext
            | Stack used (prev) :  00000088
            | + function block  :  00000002
  03      nwk_joinContext
          | Stack used (prev) :  0000008A
          | + function block  :  00000002
  04        memcpy
            | Stack used (prev) :  0000004E
            | + function block  :  00000004
            |  Already listed
  05          memcpy
              | Stack used (prev) :  0000004E
              | + function block  :  00000004
              |  Already listed
  04        nwk_setMyAddress
            | Stack used (prev) :  00000088
            | + function block  :  00000002
  04        nwk_getMyAddress
            | Stack used (prev) :  0000004E
            | + function block  :  00000002
            |  Already listed
  03      nwk_deviceAddress
          | Stack used (prev) :  0000008A
          | + function block  :  00000006
  03      nwk_getProtocolVersion
          | Stack used (prev) :  0000004E
          | + function block  :  00000002
          |  Already listed
  03      nwk_getFWVersion
          | Stack used (prev) :  00000088
          | + function block  :  00000002
  03      nwk_NVObj
          | Stack used (prev) :  00000088
          | + function block  :  00000002
  02    SMPL_Ioctl
        | Stack used (prev) :  000000A0
        | + function block  :  00000006
  03      nwk_retrieveFrame
          | Stack used (prev) :  00000088
          | + function block  :  00000010
          |  Already listed
  03      nwk_getConnInfo
          | Stack used (prev) :  00000050
          | + function block  :  00000004
          |  Already listed
  03      nwk_checkConnInfo
          | Stack used (prev) :  00000088
          | + function block  :  00000002
  02    SMPL_Receive
        | Stack used (prev) :  00000098
        | + function block  :  0000000E
  03      nwk_setListenContext
          | Stack used (prev) :  00000088
          | + function block  :  00000002
  04        nwk_setListenContext
            | Stack used (prev) :  00000088
            | + function block  :  00000002
            |  Already listed
  03      nwk_getLocalLinkID
          | Stack used (prev) :  0000008A
          | + function block  :  00000002
  03      MRFI_RxOn
          | Stack used (prev) :  00000088
          | + function block  :  00000002
          |  Already listed
  03      MRFI_Sleep
          | Stack used (prev) :  0000008A
          | + function block  :  00000002
          |  Already listed
  03      MRFI_RxIdle
          | Stack used (prev) :  00000088
          | + function block  :  00000002
          |  Already listed
  03      MRFI_WakeUp
          | Stack used (prev) :  00000088
          | + function block  :  00000002
          |  Already listed
  03      MRFI_DelayMs
          | Stack used (prev) :  00000012
          | + function block  :  00000004
          |  Already listed
  03      MRFI_GetRadioState
          | Stack used (prev) :  00000088
          | + function block  :  00000002
  02    SMPL_LinkListen
        | Stack used (prev) :  0000008C
        | + function block  :  0000000A
  03      nwk_join
          | Stack used (prev) :  00000088
          | + function block  :  00000002
  04        memset
            | Stack used (prev) :  00000008
            | + function block  :  00000004
            |  Already listed
  04        memcpy
            | Stack used (prev) :  0000004E
            | + function block  :  00000004
            |  Already listed
  04        nwk_securityInit
            | Stack used (prev) :  00000088
            | + function block  :  00000002
  05          MRFI_RandomByte
              | Stack used (prev) :  00000008
              | + function block  :  00000002
              |  Already listed
  04        nwk_pingInit
            | Stack used (prev) :  00000088
            | + function block  :  00000002
  05          memset
              | Stack used (prev) :  00000008
              | + function block  :  00000004
              |  Already listed
  05          MRFI_RandomByte
              | Stack used (prev) :  00000008
              | + function block  :  00000002
              |  Already listed
  04        nwk_mgmtInit
            | Stack used (prev) :  00000088
            | + function block  :  00000002
  05          memset
              | Stack used (prev) :  00000008
              | + function block  :  00000004
              |  Already listed
  05          MRFI_RandomByte
              | Stack used (prev) :  00000008
              | + function block  :  00000002
              |  Already listed
  04        nwk_linkInit
            | Stack used (prev) :  00000088
            | + function block  :  00000002
  05          nwk_setLinkToken
              | Stack used (prev) :  00000088
              | + function block  :  00000002
              |  Already listed
  05          nwk_getSFInfoPtr
              | Stack used (prev) :  00000088
              | + function block  :  00000002
  05          MRFI_RandomByte
              | Stack used (prev) :  00000008
              | + function block  :  00000002
              |  Already listed
  04        nwk_joinInit
            | Stack used (prev) :  0000008A
            | + function block  :  00000002
  04        nwk_getBCastAddress
            | Stack used (prev) :  00000008
            | + function block  :  00000002
            |  Already listed
  05          memset
              | Stack used (prev) :  00000008
              | + function block  :  00000004
              |  Already listed
  05          memcpy
              | Stack used (prev) :  0000004E
              | + function block  :  00000004
              |  Already listed
  04        nwk_globalsInit
            | Stack used (prev) :  00000088
            | + function block  :  00000002
  04        nwk_freqInit
            | Stack used (prev) :  00000088
            | + function block  :  00000002
  05          nwk_getMyAddress
              | Stack used (prev) :  0000004E
              | + function block  :  00000002
              |  Already listed
  05          MRFI_RandomByte
              | Stack used (prev) :  00000008
              | + function block  :  00000002
              |  Already listed
  04        nwk_frameInit
            | Stack used (prev) :  00000088
            | + function block  :  00000002
  05          memset
              | Stack used (prev) :  00000008
              | + function block  :  00000004
              |  Already listed
  04        nwk_QInit
            | Stack used (prev) :  00000088
            | + function block  :  00000002
  03      nwk_nwkInit
          | Stack used (prev) :  0000008C
          | + function block  :  00000004
  04        memset
            | Stack used (prev) :  00000008
            | + function block  :  00000004
            |  Already listed
  04        Mrfi_DelayUsec
            | Stack used (prev) :  0000000C
            | + function block  :  00000006
            |  Already listed
  04        Mrfi_DelayUsec
            | Stack used (prev) :  0000000C
            | + function block  :  00000006
            |  Already listed
  04        Mrfi_DelayUsec
            | Stack used (prev) :  0000000C
            | + function block  :  00000006
            |  Already listed
  04        mrfiSpiInit
            | Stack used (prev) :  00000088
            | + function block  :  00000002
  05          Mrfi_RxModeOff
              | Stack used (prev) :  0000000A
              | + function block  :  00000002
              |  Already listed
  05          Mrfi_RxModeOn
              | Stack used (prev) :  0000000A
              | + function block  :  00000002
              |  Already listed
  05          mrfiSpiWriteReg
              | Stack used (prev) :  0000000A
              | + function block  :  00000002
              |  Already listed
  04        MRFI_SetLogicalChannel
            | Stack used (prev) :  00000088
            | + function block  :  00000002
  04        MRFI_SetRFPwr
            | Stack used (prev) :  00000088
            | + function block  :  00000002
            |  Already listed
  04        Mrfi_RxModeOff
            | Stack used (prev) :  0000000A
            | + function block  :  00000002
            |  Already listed
  04        mrfiSpiWriteReg
            | Stack used (prev) :  0000000A
            | + function block  :  00000002
            |  Already listed
  04        mrfiSpiWriteReg
            | Stack used (prev) :  0000000A
            | + function block  :  00000002
            |  Already listed
  04        mrfiSpiWriteReg
            | Stack used (prev) :  0000000A
            | + function block  :  00000002
            |  Already listed
  04        mrfiSpiReadReg
            | Stack used (prev) :  0000000A
            | + function block  :  00000002
            |  Already listed
  04        mrfiSpiReadReg
            | Stack used (prev) :  0000000A
            | + function block  :  00000002
            |  Already listed
  04        mrfiSpiReadReg
            | Stack used (prev) :  0000000A
            | + function block  :  00000002
            |  Already listed
  04        mrfiSpiCmdStrobe
            | Stack used (prev) :  00000008
            | + function block  :  00000002
            |  Already listed
  03      MRFI_Init
          | Stack used (prev) :  0000008A
          | + function block  :  00000006
  03      MRFI_RxOn
          | Stack used (prev) :  00000088
          | + function block  :  00000002
          |  Already listed
  03      MRFI_WakeUp
          | Stack used (prev) :  00000088
          | + function block  :  00000002
          |  Already listed
  02    SMPL_Init
        | Stack used (prev) :  00000090
        | + function block  :  00000004
  03      BSP_InitButtons
          | Stack used (prev) :  00000088
          | + function block  :  00000002
  03      BSP_InitLeds
          | Stack used (prev) :  00000088
          | + function block  :  00000002
  03      BSP_InitBoard
          | Stack used (prev) :  00000088
          | + function block  :  00000002
  02    BSP_Init
        | Stack used (prev) :  0000008A
        | + function block  :  00000004
  01  main
      | Stack used (prev) :  0000011A
      | + function block  :  0000002C
  <-Sub-tree of type: Function tree
    | Stack used          :  00000146


  ->Sub-tree of type: Function tree
                             CSTACK
    | Stack used (prev) :  00000146
  01  exit
      | Stack used (prev) :  00000146
      | + function block  :  00000002
  <-Sub-tree of type: Function tree
    | Stack used          :  00000148


  ->Sub-tree of type: Function tree
                             CSTACK
    | Stack used (prev) :  00000148
  01  __data16_memzero
      | Stack used (prev) :  00000148
      | + function block  :  00000002
  <-Sub-tree of type: Function tree
    | Stack used          :  0000014A


  ->Sub-tree of type: Function tree
                             CSTACK
    | Stack used (prev) :  0000014A
  02    memcpy
        | Stack used (prev) :  0000004E
        | + function block  :  00000004
        |  Already listed
  01  __data16_memcpy
      | Stack used (prev) :  0000014A
      | + function block  :  00000002
  <-Sub-tree of type: Function tree
    | Stack used          :  0000014C




                ****************************************
                *                                      *
                *      SEGMENTS IN ADDRESS ORDER       *
                *                                      *
                ****************************************


SEGMENT              SPACE    START ADDRESS   END ADDRESS     SIZE  TYPE  ALIGN
=======              =====    =============   ===========     ====  ====  =====
DATA16_AN                              0001 - 0001               1   rel    0
                                       0003 - 0003               1 
                                       0018 - 001B               4 
                                       0020 - 0024               5 
                                       0027 - 002E               8 
                                       004A - 004A               1 
                                       0053 - 0053               1 
                                       0056 - 0057               2 
                                       0061 - 0064               4 
                                       0066 - 006B               6 
                                       006E - 006F               2 
                                       0120 - 0121               2 
                                       0160 - 0163               4 
                                       0172 - 0173               2 
                                       01B0 - 01B5               6 
DATA16_I                               0200 - 027D              7E   rel    1
DATA16_Z                               027E - 03AD             130   rel    1
CSTACK                                 0538 - 05FF              C8   rel    1
DATA16_AN                              10FC - 10FD               2   rel    0
DATA16_C                               8000 - 8278             279   rel    1
DATA16_ID                              827A - 82F7              7E   rel    1
CSTART                                 82F8 - 8327              30   rel    1
<CODE> 1                               8328 - A963            263C   rel    1
INTVEC                                 FFE0 - FFF3              14   com    1
RESET                                  FFFE - FFFF               2   rel    1

                ****************************************
                *                                      *
                *        END OF CROSS REFERENCE        *
                *                                      *
                ****************************************

 9 858 bytes of CODE  memory
   630 bytes of DATA  memory (+ 51 absolute )
   759 bytes of CONST memory

Errors: none
Warnings: none

